ccopy_reg
_reconstructor
p0
(cmadgraph.core.base_objects
Model
p1
c__builtin__
dict
p2
(dp3
S'ref_dict_to0'
p4
(dp5
sS'interactions'
p6
g0
(cmadgraph.core.base_objects
InteractionList
p7
c__builtin__
list
p8
(lp9
g0
(cmadgraph.core.base_objects
Interaction
p10
g2
(dp11
S'particles'
p12
g0
(cmadgraph.core.base_objects
ParticleList
p13
g8
(lp14
g0
(cmadgraph.core.base_objects
Particle
p15
g2
(dp16
S'texname'
p17
S'\\phi'
p18
sS'propagating'
p19
I01
sS'name'
p20
S'h'
p21
sS'self_antipart'
p22
I01
sS'color'
p23
I1
sS'width'
p24
S'WH'
p25
sS'charge'
p26
F0.0
sS'mass'
p27
S'MH'
p28
sS'antiname'
p29
S'h'
p30
sS'LeptonNumber'
p31
I0
sS'line'
p32
S'dashed'
p33
sS'is_part'
p34
I01
sS'spin'
p35
I1
sS'antitexname'
p36
g18
sS'pdg_code'
p37
I25
stp38
Rp39
ag39
ag39
atp40
Rp41
sS'lorentz'
p42
(lp43
S'SSS1'
p44
asg23
(lp45
g0
(cmadgraph.core.color_algebra
ColorString
p46
g8
(lp47
tp48
Rp49
(dp50
S'coeff'
p51
cfractions
Fraction
p52
(S'1'
p53
tp54
Rp55
sS'is_imaginary'
p56
I00
sS'Nc_power'
p57
I0
sbasS'id'
p58
I1
sS'orders'
p59
(dp60
S'QED'
p61
I1
ssS'couplings'
p62
(dp63
(I0
I0
tp64
S'GC_36'
p65
sstp66
Rp67
ag0
(g10
g2
(dp68
g12
g0
(g13
g8
(lp69
g0
(g15
g2
(dp70
g17
S'A'
p71
sg19
I01
sg20
S'a'
p72
sg22
I01
sg23
I1
sg24
S'ZERO'
p73
sg26
F0.0
sg27
g73
sg29
S'a'
p74
sg31
I0
sg32
S'wavy'
p75
sg34
I01
sg35
I3
sg36
g71
sg37
I22
stp76
Rp77
ag77
ag39
atp78
Rp79
sg42
(lp80
S'VVS3'
p81
asg23
(lp82
g0
(g46
g8
(lp83
tp84
Rp85
(dp86
g51
g52
(g53
tp87
Rp88
sg56
I00
sg57
I0
sbasg58
I2
sg59
(dp89
S'HIW'
p90
I1
ssg62
(dp91
(I0
I0
tp92
S'GC_1'
p93
sstp94
Rp95
ag0
(g10
g2
(dp96
g12
g0
(g13
g8
(lp97
g0
(g15
g2
(dp98
g17
S'G'
p99
sg19
I01
sg20
S'g'
p100
sg22
I01
sg23
I8
sg24
g73
sg26
F0.0
sg27
g73
sg29
S'g'
p101
sg31
I0
sg32
S'curly'
p102
sg34
I01
sg35
I3
sg36
g99
sg37
I21
stp103
Rp104
ag104
ag39
atp105
Rp106
sg42
(lp107
g81
asg23
(lp108
g0
(g46
g8
(lp109
cmadgraph.core.color_algebra
Tr
p110
(I0
I1
tp111
Rp112
atp113
Rp114
(dp115
g51
g52
(S'2'
p116
tp117
Rp118
sg56
I00
sg57
I0
sbasg58
I3
sg59
(dp119
S'HIG'
p120
I1
ssg62
(dp121
(I0
I0
tp122
S'GC_8'
p123
sstp124
Rp125
ag0
(g10
g2
(dp126
g12
g0
(g13
g8
(lp127
g104
ag104
ag0
(g15
g2
(dp128
g17
S'h1'
p129
sg19
I01
sg20
S'h1'
p130
sg22
I01
sg23
I1
sg24
S'WH1'
p131
sg26
F0.0
sg27
S'MP'
p132
sg29
S'h1'
p133
sg31
I0
sg32
g33
sg34
I01
sg35
I1
sg36
g129
sg37
I9000006
stp134
Rp135
atp136
Rp137
sg42
(lp138
S'VVS1'
p139
asg23
(lp140
g0
(g46
g8
(lp141
g110
(I0
I1
tp142
Rp143
atp144
Rp145
(dp146
g51
g52
(g116
tp147
Rp148
sg56
I00
sg57
I0
sbasg58
I4
sg59
(dp149
g120
I1
ssg62
(dp150
(I0
I0
tp151
S'GC_11'
p152
sstp153
Rp154
ag0
(g10
g2
(dp155
g12
g0
(g13
g8
(lp156
g104
ag104
ag104
atp157
Rp158
sg42
(lp159
S'VVV1'
p160
asg23
(lp161
g0
(g46
g8
(lp162
cmadgraph.core.color_algebra
f
p163
(I0
I1
I2
tp164
Rp165
atp166
Rp167
(dp168
g51
g52
(g53
tp169
Rp170
sg56
I00
sg57
I0
sbasg58
I5
sg59
(dp171
S'QCD'
p172
I1
ssg62
(dp173
(I0
I0
tp174
S'GC_5'
p175
sstp176
Rp177
ag0
(g10
g2
(dp178
g12
g0
(g13
g8
(lp179
g104
ag104
ag104
ag104
atp180
Rp181
sg42
(lp182
S'VVVV1'
p183
aS'VVVV3'
p184
aS'VVVV4'
p185
asg23
(lp186
g0
(g46
g8
(lp187
g163
(I-1
I0
I1
tp188
Rp189
ag163
(I2
I3
I-1
tp190
Rp191
atp192
Rp193
(dp194
g51
g52
(g53
tp195
Rp196
sg56
I00
sg57
I0
sbag0
(g46
g8
(lp197
g163
(I-1
I0
I2
tp198
Rp199
ag163
(I1
I3
I-1
tp200
Rp201
atp202
Rp203
(dp204
g51
g52
(g53
tp205
Rp206
sg56
I00
sg57
I0
sbag0
(g46
g8
(lp207
g163
(I-1
I0
I3
tp208
Rp209
ag163
(I1
I2
I-1
tp210
Rp211
atp212
Rp213
(dp214
g51
g52
(g53
tp215
Rp216
sg56
I00
sg57
I0
sbasg58
I6
sg59
(dp217
g172
I2
ssg62
(dp218
(I0
I0
tp219
S'GC_7'
p220
s(I1
I1
tp221
g220
s(I2
I2
tp222
g220
sstp223
Rp224
ag0
(g10
g2
(dp225
g12
g0
(g13
g8
(lp226
g104
ag104
ag104
ag135
atp227
Rp228
sg42
(lp229
S'VVVS1'
p230
asg23
(lp231
g0
(g46
g8
(lp232
g163
(I0
I1
I2
tp233
Rp234
atp235
Rp236
(dp237
g51
g52
(g53
tp238
Rp239
sg56
I00
sg57
I0
sbasg58
I7
sg59
(dp240
g172
I1
sg120
I1
ssg62
(dp241
(I0
I0
tp242
S'GC_12'
p243
sstp244
Rp245
ag0
(g10
g2
(dp246
g12
g0
(g13
g8
(lp247
g104
ag104
ag104
ag39
atp248
Rp249
sg42
(lp250
S'VVVS2'
p251
asg23
(lp252
g0
(g46
g8
(lp253
g163
(I0
I1
I2
tp254
Rp255
atp256
Rp257
(dp258
g51
g52
(g53
tp259
Rp260
sg56
I00
sg57
I0
sbasg58
I8
sg59
(dp261
g172
I1
sg120
I1
ssg62
(dp262
(I0
I0
tp263
S'GC_9'
p264
sstp265
Rp266
ag0
(g10
g2
(dp267
g12
g0
(g13
g8
(lp268
g104
ag104
ag104
ag104
ag39
atp269
Rp270
sg42
(lp271
S'VVVVS1'
p272
aS'VVVVS2'
p273
aS'VVVVS3'
p274
asg23
(lp275
g0
(g46
g8
(lp276
g163
(I-1
I0
I1
tp277
Rp278
ag163
(I2
I3
I-1
tp279
Rp280
atp281
Rp282
(dp283
g51
g52
(g53
tp284
Rp285
sg56
I00
sg57
I0
sbag0
(g46
g8
(lp286
g163
(I-1
I0
I2
tp287
Rp288
ag163
(I1
I3
I-1
tp289
Rp290
atp291
Rp292
(dp293
g51
g52
(g53
tp294
Rp295
sg56
I00
sg57
I0
sbag0
(g46
g8
(lp296
g163
(I-1
I0
I3
tp297
Rp298
ag163
(I1
I2
I-1
tp299
Rp300
atp301
Rp302
(dp303
g51
g52
(g53
tp304
Rp305
sg56
I00
sg57
I0
sbasg58
I9
sg59
(dp306
g172
I2
sg120
I1
ssg62
(dp307
(I0
I0
tp308
S'GC_10'
p309
s(I1
I1
tp310
g309
s(I2
I2
tp311
g309
sstp312
Rp313
ag0
(g10
g2
(dp314
g12
g0
(g13
g8
(lp315
g77
ag0
(g15
g2
(dp316
g17
S'W+'
p317
sg34
I00
sg20
S'w+'
p318
sg22
I00
sg23
I1
sg24
S'WW'
p319
sg26
F1.0
sg27
S'MW'
p320
sg31
I0
sg29
S'w-'
p321
sg32
g75
sg19
I01
sg35
I3
sg36
g317
sg37
I24
stp322
Rp323
ag0
(g15
g2
(dp324
g17
g317
sg19
I01
sg20
g318
sg22
I00
sg23
I1
sg24
g319
sg26
F1.0
sg27
g320
sg29
g321
sg31
I0
sg32
g75
sg34
I01
sg35
I3
sg36
g317
sg37
I24
stp325
Rp326
atp327
Rp328
sg42
(lp329
g160
asg23
(lp330
g0
(g46
g8
(lp331
tp332
Rp333
(dp334
g51
g52
(g53
tp335
Rp336
sg56
I00
sg57
I0
sbasg58
I10
sg59
(dp337
g61
I1
ssg62
(dp338
(I0
I0
tp339
S'GC_31'
p340
sstp341
Rp342
ag0
(g10
g2
(dp343
g12
g0
(g13
g8
(lp344
g323
ag326
ag39
ag39
atp345
Rp346
sg42
(lp347
S'VVSS1'
p348
asg23
(lp349
g0
(g46
g8
(lp350
tp351
Rp352
(dp353
g51
g52
(g53
tp354
Rp355
sg56
I00
sg57
I0
sbasg58
I11
sg59
(dp356
g61
I2
ssg62
(dp357
(I0
I0
tp358
S'GC_16'
p359
sstp360
Rp361
ag0
(g10
g2
(dp362
g12
g0
(g13
g8
(lp363
g323
ag326
ag39
atp364
Rp365
sg42
(lp366
S'VVS2'
p367
asg23
(lp368
g0
(g46
g8
(lp369
tp370
Rp371
(dp372
g51
g52
(g53
tp373
Rp374
sg56
I00
sg57
I0
sbasg58
I12
sg59
(dp375
g61
I1
ssg62
(dp376
(I0
I0
tp377
S'GC_37'
p378
sstp379
Rp380
ag0
(g10
g2
(dp381
g12
g0
(g13
g8
(lp382
g77
ag77
ag323
ag326
atp383
Rp384
sg42
(lp385
S'VVVV2'
p386
asg23
(lp387
g0
(g46
g8
(lp388
tp389
Rp390
(dp391
g51
g52
(g53
tp392
Rp393
sg56
I00
sg57
I0
sbasg58
I13
sg59
(dp394
g61
I2
ssg62
(dp395
(I0
I0
tp396
S'GC_33'
p397
sstp398
Rp399
ag0
(g10
g2
(dp400
g12
g0
(g13
g8
(lp401
g323
ag326
ag0
(g15
g2
(dp402
g17
S'Z'
p403
sg19
I01
sg20
S'z'
p404
sg22
I01
sg23
I1
sg24
S'WZ'
p405
sg26
F0.0
sg27
S'MZ'
p406
sg29
S'z'
p407
sg31
I0
sg32
g75
sg34
I01
sg35
I3
sg36
g403
sg37
I23
stp408
Rp409
atp410
Rp411
sg42
(lp412
g160
asg23
(lp413
g0
(g46
g8
(lp414
tp415
Rp416
(dp417
g51
g52
(g53
tp418
Rp419
sg56
I00
sg57
I0
sbasg58
I14
sg59
(dp420
g61
I1
ssg62
(dp421
(I0
I0
tp422
S'GC_13'
p423
sstp424
Rp425
ag0
(g10
g2
(dp426
g12
g0
(g13
g8
(lp427
g323
ag323
ag326
ag326
atp428
Rp429
sg42
(lp430
g386
asg23
(lp431
g0
(g46
g8
(lp432
tp433
Rp434
(dp435
g51
g52
(g53
tp436
Rp437
sg56
I00
sg57
I0
sbasg58
I15
sg59
(dp438
g61
I2
ssg62
(dp439
(I0
I0
tp440
S'GC_14'
p441
sstp442
Rp443
ag0
(g10
g2
(dp444
g12
g0
(g13
g8
(lp445
g77
ag323
ag326
ag409
atp446
Rp447
sg42
(lp448
S'VVVV5'
p449
asg23
(lp450
g0
(g46
g8
(lp451
tp452
Rp453
(dp454
g51
g52
(g53
tp455
Rp456
sg56
I00
sg57
I0
sbasg58
I16
sg59
(dp457
g61
I2
ssg62
(dp458
(I0
I0
tp459
S'GC_32'
p460
sstp461
Rp462
ag0
(g10
g2
(dp463
g12
g0
(g13
g8
(lp464
g409
ag409
ag39
ag39
atp465
Rp466
sg42
(lp467
g348
asg23
(lp468
g0
(g46
g8
(lp469
tp470
Rp471
(dp472
g51
g52
(g53
tp473
Rp474
sg56
I00
sg57
I0
sbasg58
I17
sg59
(dp475
g61
I2
ssg62
(dp476
(I0
I0
tp477
S'GC_35'
p478
sstp479
Rp480
ag0
(g10
g2
(dp481
g12
g0
(g13
g8
(lp482
g409
ag409
ag39
atp483
Rp484
sg42
(lp485
g367
asg23
(lp486
g0
(g46
g8
(lp487
tp488
Rp489
(dp490
g51
g52
(g53
tp491
Rp492
sg56
I00
sg57
I0
sbasg58
I18
sg59
(dp493
g61
I1
ssg62
(dp494
(I0
I0
tp495
S'GC_38'
p496
sstp497
Rp498
ag0
(g10
g2
(dp499
g12
g0
(g13
g8
(lp500
g323
ag326
ag409
ag409
atp501
Rp502
sg42
(lp503
g386
asg23
(lp504
g0
(g46
g8
(lp505
tp506
Rp507
(dp508
g51
g52
(g53
tp509
Rp510
sg56
I00
sg57
I0
sbasg58
I19
sg59
(dp511
g61
I2
ssg62
(dp512
(I0
I0
tp513
S'GC_15'
p514
sstp515
Rp516
ag0
(g10
g2
(dp517
g12
g0
(g13
g8
(lp518
g0
(g15
g2
(dp519
g17
S'd'
p520
sg34
I00
sg20
S'd'
p521
sg22
I00
sg23
I3
sg24
g73
sg26
F-0.3333333333333333
sg27
g73
sg31
I0
sg29
S'd~'
p522
sg32
S'straight'
p523
sg19
I01
sg35
I2
sg36
g520
sg37
I1
stp524
Rp525
ag0
(g15
g2
(dp526
g17
g520
sg19
I01
sg20
g521
sg22
I00
sg23
I3
sg24
g73
sg26
F-0.3333333333333333
sg27
g73
sg29
g522
sg31
I0
sg32
g523
sg34
I01
sg35
I2
sg36
g520
sg37
I1
stp527
Rp528
ag77
atp529
Rp530
sg42
(lp531
S'FFV1'
p532
asg23
(lp533
g0
(g46
g8
(lp534
cmadgraph.core.color_algebra
T
p535
(I1
I0
tp536
Rp537
atp538
Rp539
(dp540
g51
g52
(g53
tp541
Rp542
sg56
I00
sg57
I0
sbasg58
I20
sg59
(dp543
g61
I1
ssg62
(dp544
(I0
I0
tp545
S'GC_2'
p546
sstp547
Rp548
ag0
(g10
g2
(dp549
g12
g0
(g13
g8
(lp550
g0
(g15
g2
(dp551
g17
S's'
p552
sg34
I00
sg20
S's'
p553
sg22
I00
sg23
I3
sg24
g73
sg26
F-0.3333333333333333
sg27
g73
sg31
I0
sg29
S's~'
p554
sg32
g523
sg19
I01
sg35
I2
sg36
g552
sg37
I3
stp555
Rp556
ag0
(g15
g2
(dp557
g17
g552
sg19
I01
sg20
g553
sg22
I00
sg23
I3
sg24
g73
sg26
F-0.3333333333333333
sg27
g73
sg29
g554
sg31
I0
sg32
g523
sg34
I01
sg35
I2
sg36
g552
sg37
I3
stp558
Rp559
ag77
atp560
Rp561
sg42
(lp562
g532
asg23
(lp563
g0
(g46
g8
(lp564
g535
(I1
I0
tp565
Rp566
atp567
Rp568
(dp569
g51
g52
(g53
tp570
Rp571
sg56
I00
sg57
I0
sbasg58
I21
sg59
g543
sg62
(dp572
(I0
I0
tp573
g546
sstp574
Rp575
ag0
(g10
g2
(dp576
g12
g0
(g13
g8
(lp577
g0
(g15
g2
(dp578
g17
S'b'
p579
sg34
I00
sg20
S'b'
p580
sg22
I00
sg23
I3
sg24
g73
sg26
F-0.3333333333333333
sg27
S'MB'
p581
sg31
I0
sg29
S'b~'
p582
sg32
g523
sg19
I01
sg35
I2
sg36
g579
sg37
I5
stp583
Rp584
ag0
(g15
g2
(dp585
g17
g579
sg19
I01
sg20
g580
sg22
I00
sg23
I3
sg24
g73
sg26
F-0.3333333333333333
sg27
g581
sg29
g582
sg31
I0
sg32
g523
sg34
I01
sg35
I2
sg36
g579
sg37
I5
stp586
Rp587
ag77
atp588
Rp589
sg42
(lp590
g532
asg23
(lp591
g0
(g46
g8
(lp592
g535
(I1
I0
tp593
Rp594
atp595
Rp596
(dp597
g51
g52
(g53
tp598
Rp599
sg56
I00
sg57
I0
sbasg58
I22
sg59
g543
sg62
(dp600
(I0
I0
tp601
g546
sstp602
Rp603
ag0
(g10
g2
(dp604
g12
g0
(g13
g8
(lp605
g0
(g15
g2
(dp606
g17
S'e-'
p607
sg34
I00
sg20
S'e-'
p608
sg22
I00
sg23
I1
sg24
g73
sg26
F-1.0
sg27
S'Me'
p609
sg31
I1
sg29
S'e+'
p610
sg32
g523
sg19
I01
sg35
I2
sg36
g607
sg37
I11
stp611
Rp612
ag0
(g15
g2
(dp613
g17
g607
sg19
I01
sg20
g608
sg22
I00
sg23
I1
sg24
g73
sg26
F-1.0
sg27
g609
sg29
g610
sg31
I1
sg32
g523
sg34
I01
sg35
I2
sg36
g607
sg37
I11
stp614
Rp615
ag77
atp616
Rp617
sg42
(lp618
g532
asg23
(lp619
g0
(g46
g8
(lp620
tp621
Rp622
(dp623
g51
g52
(g53
tp624
Rp625
sg56
I00
sg57
I0
sbasg58
I23
sg59
(dp626
g61
I1
ssg62
(dp627
(I0
I0
tp628
S'GC_4'
p629
sstp630
Rp631
ag0
(g10
g2
(dp632
g12
g0
(g13
g8
(lp633
g0
(g15
g2
(dp634
g17
S'm-'
p635
sg34
I00
sg20
S'm-'
p636
sg22
I00
sg23
I1
sg24
g73
sg26
F-1.0
sg27
S'MM'
p637
sg31
I1
sg29
S'm+'
p638
sg32
g523
sg19
I01
sg35
I2
sg36
g635
sg37
I13
stp639
Rp640
ag0
(g15
g2
(dp641
g17
g635
sg19
I01
sg20
g636
sg22
I00
sg23
I1
sg24
g73
sg26
F-1.0
sg27
g637
sg29
g638
sg31
I1
sg32
g523
sg34
I01
sg35
I2
sg36
g635
sg37
I13
stp642
Rp643
ag77
atp644
Rp645
sg42
(lp646
g532
asg23
(lp647
g0
(g46
g8
(lp648
tp649
Rp650
(dp651
g51
g52
(g53
tp652
Rp653
sg56
I00
sg57
I0
sbasg58
I24
sg59
g626
sg62
(dp654
(I0
I0
tp655
g629
sstp656
Rp657
ag0
(g10
g2
(dp658
g12
g0
(g13
g8
(lp659
g0
(g15
g2
(dp660
g17
S'tt-'
p661
sg34
I00
sg20
S'tt-'
p662
sg22
I00
sg23
I1
sg24
S'WTau'
p663
sg26
F-1.0
sg27
S'MTA'
p664
sg31
I1
sg29
S'tt+'
p665
sg32
g523
sg19
I01
sg35
I2
sg36
g661
sg37
I15
stp666
Rp667
ag0
(g15
g2
(dp668
g17
g661
sg19
I01
sg20
g662
sg22
I00
sg23
I1
sg24
g663
sg26
F-1.0
sg27
g664
sg29
g665
sg31
I1
sg32
g523
sg34
I01
sg35
I2
sg36
g661
sg37
I15
stp669
Rp670
ag77
atp671
Rp672
sg42
(lp673
g532
asg23
(lp674
g0
(g46
g8
(lp675
tp676
Rp677
(dp678
g51
g52
(g53
tp679
Rp680
sg56
I00
sg57
I0
sbasg58
I25
sg59
g626
sg62
(dp681
(I0
I0
tp682
g629
sstp683
Rp684
ag0
(g10
g2
(dp685
g12
g0
(g13
g8
(lp686
g0
(g15
g2
(dp687
g17
S'u'
p688
sg34
I00
sg20
S'u'
p689
sg22
I00
sg23
I3
sg24
g73
sg26
F0.6666666666666666
sg27
g73
sg31
I0
sg29
S'u~'
p690
sg32
g523
sg19
I01
sg35
I2
sg36
g688
sg37
I2
stp691
Rp692
ag0
(g15
g2
(dp693
g17
g688
sg19
I01
sg20
g689
sg22
I00
sg23
I3
sg24
g73
sg26
F0.6666666666666666
sg27
g73
sg29
g690
sg31
I0
sg32
g523
sg34
I01
sg35
I2
sg36
g688
sg37
I2
stp694
Rp695
ag77
atp696
Rp697
sg42
(lp698
g532
asg23
(lp699
g0
(g46
g8
(lp700
g535
(I1
I0
tp701
Rp702
atp703
Rp704
(dp705
g51
g52
(g53
tp706
Rp707
sg56
I00
sg57
I0
sbasg58
I26
sg59
(dp708
g61
I1
ssg62
(dp709
(I0
I0
tp710
S'GC_3'
p711
sstp712
Rp713
ag0
(g10
g2
(dp714
g12
g0
(g13
g8
(lp715
g0
(g15
g2
(dp716
g17
S'c'
p717
sg34
I00
sg20
S'c'
p718
sg22
I00
sg23
I3
sg24
g73
sg26
F0.6666666666666666
sg27
S'MC'
p719
sg31
I0
sg29
S'c~'
p720
sg32
g523
sg19
I01
sg35
I2
sg36
g717
sg37
I4
stp721
Rp722
ag0
(g15
g2
(dp723
g17
g717
sg19
I01
sg20
g718
sg22
I00
sg23
I3
sg24
g73
sg26
F0.6666666666666666
sg27
g719
sg29
g720
sg31
I0
sg32
g523
sg34
I01
sg35
I2
sg36
g717
sg37
I4
stp724
Rp725
ag77
atp726
Rp727
sg42
(lp728
g532
asg23
(lp729
g0
(g46
g8
(lp730
g535
(I1
I0
tp731
Rp732
atp733
Rp734
(dp735
g51
g52
(g53
tp736
Rp737
sg56
I00
sg57
I0
sbasg58
I27
sg59
g708
sg62
(dp738
(I0
I0
tp739
g711
sstp740
Rp741
ag0
(g10
g2
(dp742
g12
g0
(g13
g8
(lp743
g0
(g15
g2
(dp744
g17
S't'
p745
sg34
I00
sg20
S't'
p746
sg22
I00
sg23
I3
sg24
S'WT'
p747
sg26
F0.6666666666666666
sg27
S'MT'
p748
sg31
I0
sg29
S't~'
p749
sg32
g523
sg19
I01
sg35
I2
sg36
g745
sg37
I6
stp750
Rp751
ag0
(g15
g2
(dp752
g17
g745
sg19
I01
sg20
g746
sg22
I00
sg23
I3
sg24
g747
sg26
F0.6666666666666666
sg27
g748
sg29
g749
sg31
I0
sg32
g523
sg34
I01
sg35
I2
sg36
g745
sg37
I6
stp753
Rp754
ag77
atp755
Rp756
sg42
(lp757
g532
asg23
(lp758
g0
(g46
g8
(lp759
g535
(I1
I0
tp760
Rp761
atp762
Rp763
(dp764
g51
g52
(g53
tp765
Rp766
sg56
I00
sg57
I0
sbasg58
I28
sg59
g708
sg62
(dp767
(I0
I0
tp768
g711
sstp769
Rp770
ag0
(g10
g2
(dp771
g12
g0
(g13
g8
(lp772
g525
ag528
ag104
atp773
Rp774
sg42
(lp775
g532
asg23
(lp776
g0
(g46
g8
(lp777
g535
(I2
I1
I0
tp778
Rp779
atp780
Rp781
(dp782
g51
g52
(g53
tp783
Rp784
sg56
I00
sg57
I0
sbasg58
I29
sg59
(dp785
g172
I1
ssg62
(dp786
(I0
I0
tp787
S'GC_6'
p788
sstp789
Rp790
ag0
(g10
g2
(dp791
g12
g0
(g13
g8
(lp792
g556
ag559
ag104
atp793
Rp794
sg42
(lp795
g532
asg23
(lp796
g0
(g46
g8
(lp797
g535
(I2
I1
I0
tp798
Rp799
atp800
Rp801
(dp802
g51
g52
(g53
tp803
Rp804
sg56
I00
sg57
I0
sbasg58
I30
sg59
g785
sg62
(dp805
(I0
I0
tp806
g788
sstp807
Rp808
ag0
(g10
g2
(dp809
g12
g0
(g13
g8
(lp810
g584
ag587
ag104
atp811
Rp812
sg42
(lp813
g532
asg23
(lp814
g0
(g46
g8
(lp815
g535
(I2
I1
I0
tp816
Rp817
atp818
Rp819
(dp820
g51
g52
(g53
tp821
Rp822
sg56
I00
sg57
I0
sbasg58
I31
sg59
g785
sg62
(dp823
(I0
I0
tp824
g788
sstp825
Rp826
ag0
(g10
g2
(dp827
g12
g0
(g13
g8
(lp828
g584
ag587
ag39
atp829
Rp830
sg42
(lp831
S'FFS1'
p832
asg23
(lp833
g0
(g46
g8
(lp834
g535
(I1
I0
tp835
Rp836
atp837
Rp838
(dp839
g51
g52
(g53
tp840
Rp841
sg56
I00
sg57
I0
sbasg58
I32
sg59
(dp842
g61
I1
ssg62
(dp843
(I0
I0
tp844
S'GC_39'
p845
sstp846
Rp847
ag0
(g10
g2
(dp848
g12
g0
(g13
g8
(lp849
g525
ag528
ag409
atp850
Rp851
sg42
(lp852
S'FFV2'
p853
aS'FFV3'
p854
asg23
(lp855
g0
(g46
g8
(lp856
g535
(I1
I0
tp857
Rp858
atp859
Rp860
(dp861
g51
g52
(g53
tp862
Rp863
sg56
I00
sg57
I0
sbasg58
I33
sg59
(dp864
g61
I1
ssg62
(dp865
(I0
I1
tp866
S'GC_29'
p867
s(I0
I0
tp868
S'GC_27'
p869
sstp870
Rp871
ag0
(g10
g2
(dp872
g12
g0
(g13
g8
(lp873
g556
ag559
ag409
atp874
Rp875
sg42
(lp876
g853
ag854
asg23
(lp877
g0
(g46
g8
(lp878
g535
(I1
I0
tp879
Rp880
atp881
Rp882
(dp883
g51
g52
(g53
tp884
Rp885
sg56
I00
sg57
I0
sbasg58
I34
sg59
g864
sg62
(dp886
(I0
I1
tp887
g867
s(I0
I0
tp888
g869
sstp889
Rp890
ag0
(g10
g2
(dp891
g12
g0
(g13
g8
(lp892
g584
ag587
ag409
atp893
Rp894
sg42
(lp895
g853
ag854
asg23
(lp896
g0
(g46
g8
(lp897
g535
(I1
I0
tp898
Rp899
atp900
Rp901
(dp902
g51
g52
(g53
tp903
Rp904
sg56
I00
sg57
I0
sbasg58
I35
sg59
g864
sg62
(dp905
(I0
I1
tp906
g867
s(I0
I0
tp907
g869
sstp908
Rp909
ag0
(g10
g2
(dp910
g12
g0
(g13
g8
(lp911
g525
ag695
ag323
atp912
Rp913
sg42
(lp914
g853
asg23
(lp915
g0
(g46
g8
(lp916
g535
(I1
I0
tp917
Rp918
atp919
Rp920
(dp921
g51
g52
(g53
tp922
Rp923
sg56
I00
sg57
I0
sbasg58
I36
sg59
(dp924
g61
I1
ssg62
(dp925
(I0
I0
tp926
S'GC_18'
p927
sstp928
Rp929
ag0
(g10
g2
(dp930
g12
g0
(g13
g8
(lp931
g525
ag725
ag323
atp932
Rp933
sg42
(lp934
g853
asg23
(lp935
g0
(g46
g8
(lp936
g535
(I1
I0
tp937
Rp938
atp939
Rp940
(dp941
g51
g52
(g53
tp942
Rp943
sg56
I00
sg57
I0
sbasg58
I37
sg59
(dp944
g61
I1
ssg62
(dp945
(I0
I0
tp946
S'GC_21'
p947
sstp948
Rp949
ag0
(g10
g2
(dp950
g12
g0
(g13
g8
(lp951
g525
ag754
ag323
atp952
Rp953
sg42
(lp954
g853
asg23
(lp955
g0
(g46
g8
(lp956
g535
(I1
I0
tp957
Rp958
atp959
Rp960
(dp961
g51
g52
(g53
tp962
Rp963
sg56
I00
sg57
I0
sbasg58
I38
sg59
(dp964
g61
I1
ssg62
(dp965
(I0
I0
tp966
S'GC_24'
p967
sstp968
Rp969
ag0
(g10
g2
(dp970
g12
g0
(g13
g8
(lp971
g556
ag695
ag323
atp972
Rp973
sg42
(lp974
g853
asg23
(lp975
g0
(g46
g8
(lp976
g535
(I1
I0
tp977
Rp978
atp979
Rp980
(dp981
g51
g52
(g53
tp982
Rp983
sg56
I00
sg57
I0
sbasg58
I39
sg59
(dp984
g61
I1
ssg62
(dp985
(I0
I0
tp986
S'GC_19'
p987
sstp988
Rp989
ag0
(g10
g2
(dp990
g12
g0
(g13
g8
(lp991
g556
ag725
ag323
atp992
Rp993
sg42
(lp994
g853
asg23
(lp995
g0
(g46
g8
(lp996
g535
(I1
I0
tp997
Rp998
atp999
Rp1000
(dp1001
g51
g52
(g53
tp1002
Rp1003
sg56
I00
sg57
I0
sbasg58
I40
sg59
(dp1004
g61
I1
ssg62
(dp1005
(I0
I0
tp1006
S'GC_22'
p1007
sstp1008
Rp1009
ag0
(g10
g2
(dp1010
g12
g0
(g13
g8
(lp1011
g556
ag754
ag323
atp1012
Rp1013
sg42
(lp1014
g853
asg23
(lp1015
g0
(g46
g8
(lp1016
g535
(I1
I0
tp1017
Rp1018
atp1019
Rp1020
(dp1021
g51
g52
(g53
tp1022
Rp1023
sg56
I00
sg57
I0
sbasg58
I41
sg59
(dp1024
g61
I1
ssg62
(dp1025
(I0
I0
tp1026
S'GC_25'
p1027
sstp1028
Rp1029
ag0
(g10
g2
(dp1030
g12
g0
(g13
g8
(lp1031
g584
ag695
ag323
atp1032
Rp1033
sg42
(lp1034
g853
asg23
(lp1035
g0
(g46
g8
(lp1036
g535
(I1
I0
tp1037
Rp1038
atp1039
Rp1040
(dp1041
g51
g52
(g53
tp1042
Rp1043
sg56
I00
sg57
I0
sbasg58
I42
sg59
(dp1044
g61
I1
ssg62
(dp1045
(I0
I0
tp1046
S'GC_20'
p1047
sstp1048
Rp1049
ag0
(g10
g2
(dp1050
g12
g0
(g13
g8
(lp1051
g584
ag725
ag323
atp1052
Rp1053
sg42
(lp1054
g853
asg23
(lp1055
g0
(g46
g8
(lp1056
g535
(I1
I0
tp1057
Rp1058
atp1059
Rp1060
(dp1061
g51
g52
(g53
tp1062
Rp1063
sg56
I00
sg57
I0
sbasg58
I43
sg59
(dp1064
g61
I1
ssg62
(dp1065
(I0
I0
tp1066
S'GC_23'
p1067
sstp1068
Rp1069
ag0
(g10
g2
(dp1070
g12
g0
(g13
g8
(lp1071
g584
ag754
ag323
atp1072
Rp1073
sg42
(lp1074
g853
asg23
(lp1075
g0
(g46
g8
(lp1076
g535
(I1
I0
tp1077
Rp1078
atp1079
Rp1080
(dp1081
g51
g52
(g53
tp1082
Rp1083
sg56
I00
sg57
I0
sbasg58
I44
sg59
(dp1084
g61
I1
ssg62
(dp1085
(I0
I0
tp1086
S'GC_26'
p1087
sstp1088
Rp1089
ag0
(g10
g2
(dp1090
g12
g0
(g13
g8
(lp1091
g692
ag528
ag326
atp1092
Rp1093
sg42
(lp1094
g853
asg23
(lp1095
g0
(g46
g8
(lp1096
g535
(I1
I0
tp1097
Rp1098
atp1099
Rp1100
(dp1101
g51
g52
(g53
tp1102
Rp1103
sg56
I00
sg57
I0
sbasg58
I45
sg59
(dp1104
g61
I1
ssg62
(dp1105
(I0
I0
tp1106
S'GC_45'
p1107
sstp1108
Rp1109
ag0
(g10
g2
(dp1110
g12
g0
(g13
g8
(lp1111
g722
ag528
ag326
atp1112
Rp1113
sg42
(lp1114
g853
asg23
(lp1115
g0
(g46
g8
(lp1116
g535
(I1
I0
tp1117
Rp1118
atp1119
Rp1120
(dp1121
g51
g52
(g53
tp1122
Rp1123
sg56
I00
sg57
I0
sbasg58
I46
sg59
(dp1124
g61
I1
ssg62
(dp1125
(I0
I0
tp1126
S'GC_48'
p1127
sstp1128
Rp1129
ag0
(g10
g2
(dp1130
g12
g0
(g13
g8
(lp1131
g751
ag528
ag326
atp1132
Rp1133
sg42
(lp1134
g853
asg23
(lp1135
g0
(g46
g8
(lp1136
g535
(I1
I0
tp1137
Rp1138
atp1139
Rp1140
(dp1141
g51
g52
(g53
tp1142
Rp1143
sg56
I00
sg57
I0
sbasg58
I47
sg59
(dp1144
g61
I1
ssg62
(dp1145
(I0
I0
tp1146
S'GC_51'
p1147
sstp1148
Rp1149
ag0
(g10
g2
(dp1150
g12
g0
(g13
g8
(lp1151
g692
ag559
ag326
atp1152
Rp1153
sg42
(lp1154
g853
asg23
(lp1155
g0
(g46
g8
(lp1156
g535
(I1
I0
tp1157
Rp1158
atp1159
Rp1160
(dp1161
g51
g52
(g53
tp1162
Rp1163
sg56
I00
sg57
I0
sbasg58
I48
sg59
(dp1164
g61
I1
ssg62
(dp1165
(I0
I0
tp1166
S'GC_46'
p1167
sstp1168
Rp1169
ag0
(g10
g2
(dp1170
g12
g0
(g13
g8
(lp1171
g722
ag559
ag326
atp1172
Rp1173
sg42
(lp1174
g853
asg23
(lp1175
g0
(g46
g8
(lp1176
g535
(I1
I0
tp1177
Rp1178
atp1179
Rp1180
(dp1181
g51
g52
(g53
tp1182
Rp1183
sg56
I00
sg57
I0
sbasg58
I49
sg59
(dp1184
g61
I1
ssg62
(dp1185
(I0
I0
tp1186
S'GC_49'
p1187
sstp1188
Rp1189
ag0
(g10
g2
(dp1190
g12
g0
(g13
g8
(lp1191
g751
ag559
ag326
atp1192
Rp1193
sg42
(lp1194
g853
asg23
(lp1195
g0
(g46
g8
(lp1196
g535
(I1
I0
tp1197
Rp1198
atp1199
Rp1200
(dp1201
g51
g52
(g53
tp1202
Rp1203
sg56
I00
sg57
I0
sbasg58
I50
sg59
(dp1204
g61
I1
ssg62
(dp1205
(I0
I0
tp1206
S'GC_52'
p1207
sstp1208
Rp1209
ag0
(g10
g2
(dp1210
g12
g0
(g13
g8
(lp1211
g692
ag587
ag326
atp1212
Rp1213
sg42
(lp1214
g853
asg23
(lp1215
g0
(g46
g8
(lp1216
g535
(I1
I0
tp1217
Rp1218
atp1219
Rp1220
(dp1221
g51
g52
(g53
tp1222
Rp1223
sg56
I00
sg57
I0
sbasg58
I51
sg59
(dp1224
g61
I1
ssg62
(dp1225
(I0
I0
tp1226
S'GC_47'
p1227
sstp1228
Rp1229
ag0
(g10
g2
(dp1230
g12
g0
(g13
g8
(lp1231
g722
ag587
ag326
atp1232
Rp1233
sg42
(lp1234
g853
asg23
(lp1235
g0
(g46
g8
(lp1236
g535
(I1
I0
tp1237
Rp1238
atp1239
Rp1240
(dp1241
g51
g52
(g53
tp1242
Rp1243
sg56
I00
sg57
I0
sbasg58
I52
sg59
(dp1244
g61
I1
ssg62
(dp1245
(I0
I0
tp1246
S'GC_50'
p1247
sstp1248
Rp1249
ag0
(g10
g2
(dp1250
g12
g0
(g13
g8
(lp1251
g751
ag587
ag326
atp1252
Rp1253
sg42
(lp1254
g853
asg23
(lp1255
g0
(g46
g8
(lp1256
g535
(I1
I0
tp1257
Rp1258
atp1259
Rp1260
(dp1261
g51
g52
(g53
tp1262
Rp1263
sg56
I00
sg57
I0
sbasg58
I53
sg59
(dp1264
g61
I1
ssg62
(dp1265
(I0
I0
tp1266
S'GC_53'
p1267
sstp1268
Rp1269
ag0
(g10
g2
(dp1270
g12
g0
(g13
g8
(lp1271
g692
ag695
ag104
atp1272
Rp1273
sg42
(lp1274
g532
asg23
(lp1275
g0
(g46
g8
(lp1276
g535
(I2
I1
I0
tp1277
Rp1278
atp1279
Rp1280
(dp1281
g51
g52
(g53
tp1282
Rp1283
sg56
I00
sg57
I0
sbasg58
I54
sg59
g785
sg62
(dp1284
(I0
I0
tp1285
g788
sstp1286
Rp1287
ag0
(g10
g2
(dp1288
g12
g0
(g13
g8
(lp1289
g722
ag725
ag104
atp1290
Rp1291
sg42
(lp1292
g532
asg23
(lp1293
g0
(g46
g8
(lp1294
g535
(I2
I1
I0
tp1295
Rp1296
atp1297
Rp1298
(dp1299
g51
g52
(g53
tp1300
Rp1301
sg56
I00
sg57
I0
sbasg58
I55
sg59
g785
sg62
(dp1302
(I0
I0
tp1303
g788
sstp1304
Rp1305
ag0
(g10
g2
(dp1306
g12
g0
(g13
g8
(lp1307
g751
ag754
ag104
atp1308
Rp1309
sg42
(lp1310
g532
asg23
(lp1311
g0
(g46
g8
(lp1312
g535
(I2
I1
I0
tp1313
Rp1314
atp1315
Rp1316
(dp1317
g51
g52
(g53
tp1318
Rp1319
sg56
I00
sg57
I0
sbasg58
I56
sg59
g785
sg62
(dp1320
(I0
I0
tp1321
g788
sstp1322
Rp1323
ag0
(g10
g2
(dp1324
g12
g0
(g13
g8
(lp1325
g612
ag615
ag39
atp1326
Rp1327
sg42
(lp1328
g832
asg23
(lp1329
g0
(g46
g8
(lp1330
tp1331
Rp1332
(dp1333
g51
g52
(g53
tp1334
Rp1335
sg56
I00
sg57
I0
sbasg58
I57
sg59
(dp1336
g61
I1
ssg62
(dp1337
(I0
I0
tp1338
S'GC_41'
p1339
sstp1340
Rp1341
ag0
(g10
g2
(dp1342
g12
g0
(g13
g8
(lp1343
g640
ag643
ag39
atp1344
Rp1345
sg42
(lp1346
g832
asg23
(lp1347
g0
(g46
g8
(lp1348
tp1349
Rp1350
(dp1351
g51
g52
(g53
tp1352
Rp1353
sg56
I00
sg57
I0
sbasg58
I58
sg59
(dp1354
g61
I1
ssg62
(dp1355
(I0
I0
tp1356
S'GC_42'
p1357
sstp1358
Rp1359
ag0
(g10
g2
(dp1360
g12
g0
(g13
g8
(lp1361
g667
ag670
ag39
atp1362
Rp1363
sg42
(lp1364
g832
asg23
(lp1365
g0
(g46
g8
(lp1366
tp1367
Rp1368
(dp1369
g51
g52
(g53
tp1370
Rp1371
sg56
I00
sg57
I0
sbasg58
I59
sg59
(dp1372
g61
I1
ssg62
(dp1373
(I0
I0
tp1374
S'GC_44'
p1375
sstp1376
Rp1377
ag0
(g10
g2
(dp1378
g12
g0
(g13
g8
(lp1379
g722
ag725
ag39
atp1380
Rp1381
sg42
(lp1382
g832
asg23
(lp1383
g0
(g46
g8
(lp1384
g535
(I1
I0
tp1385
Rp1386
atp1387
Rp1388
(dp1389
g51
g52
(g53
tp1390
Rp1391
sg56
I00
sg57
I0
sbasg58
I60
sg59
(dp1392
g61
I1
ssg62
(dp1393
(I0
I0
tp1394
S'GC_40'
p1395
sstp1396
Rp1397
ag0
(g10
g2
(dp1398
g12
g0
(g13
g8
(lp1399
g751
ag754
ag39
atp1400
Rp1401
sg42
(lp1402
g832
asg23
(lp1403
g0
(g46
g8
(lp1404
g535
(I1
I0
tp1405
Rp1406
atp1407
Rp1408
(dp1409
g51
g52
(g53
tp1410
Rp1411
sg56
I00
sg57
I0
sbasg58
I61
sg59
(dp1412
g61
I1
ssg62
(dp1413
(I0
I0
tp1414
S'GC_43'
p1415
sstp1416
Rp1417
ag0
(g10
g2
(dp1418
g12
g0
(g13
g8
(lp1419
g612
ag615
ag409
atp1420
Rp1421
sg42
(lp1422
g853
aS'FFV4'
p1423
asg23
(lp1424
g0
(g46
g8
(lp1425
tp1426
Rp1427
(dp1428
g51
g52
(g53
tp1429
Rp1430
sg56
I00
sg57
I0
sbasg58
I62
sg59
(dp1431
g61
I1
ssg62
(dp1432
(I0
I1
tp1433
S'GC_30'
p1434
s(I0
I0
tp1435
g869
sstp1436
Rp1437
ag0
(g10
g2
(dp1438
g12
g0
(g13
g8
(lp1439
g640
ag643
ag409
atp1440
Rp1441
sg42
(lp1442
g853
ag1423
asg23
(lp1443
g0
(g46
g8
(lp1444
tp1445
Rp1446
(dp1447
g51
g52
(g53
tp1448
Rp1449
sg56
I00
sg57
I0
sbasg58
I63
sg59
g1431
sg62
(dp1450
(I0
I1
tp1451
g1434
s(I0
I0
tp1452
g869
sstp1453
Rp1454
ag0
(g10
g2
(dp1455
g12
g0
(g13
g8
(lp1456
g667
ag670
ag409
atp1457
Rp1458
sg42
(lp1459
g853
ag1423
asg23
(lp1460
g0
(g46
g8
(lp1461
tp1462
Rp1463
(dp1464
g51
g52
(g53
tp1465
Rp1466
sg56
I00
sg57
I0
sbasg58
I64
sg59
g1431
sg62
(dp1467
(I0
I1
tp1468
g1434
s(I0
I0
tp1469
g869
sstp1470
Rp1471
ag0
(g10
g2
(dp1472
g12
g0
(g13
g8
(lp1473
g612
ag0
(g15
g2
(dp1474
g17
S've'
p1475
sg19
I01
sg20
S've'
p1476
sg22
I00
sg23
I1
sg24
g73
sg26
F0.0
sg27
g73
sg29
S've~'
p1477
sg31
I1
sg32
g523
sg34
I01
sg35
I2
sg36
g1475
sg37
I12
stp1478
Rp1479
ag323
atp1480
Rp1481
sg42
(lp1482
g853
asg23
(lp1483
g0
(g46
g8
(lp1484
tp1485
Rp1486
(dp1487
g51
g52
(g53
tp1488
Rp1489
sg56
I00
sg57
I0
sbasg58
I65
sg59
(dp1490
g61
I1
ssg62
(dp1491
(I0
I0
tp1492
S'GC_17'
p1493
sstp1494
Rp1495
ag0
(g10
g2
(dp1496
g12
g0
(g13
g8
(lp1497
g640
ag0
(g15
g2
(dp1498
g17
S'vm'
p1499
sg19
I01
sg20
S'vm'
p1500
sg22
I00
sg23
I1
sg24
g73
sg26
F0.0
sg27
g73
sg29
S'vm~'
p1501
sg31
I1
sg32
g523
sg34
I01
sg35
I2
sg36
g1499
sg37
I14
stp1502
Rp1503
ag323
atp1504
Rp1505
sg42
(lp1506
g853
asg23
(lp1507
g0
(g46
g8
(lp1508
tp1509
Rp1510
(dp1511
g51
g52
(g53
tp1512
Rp1513
sg56
I00
sg57
I0
sbasg58
I66
sg59
g1490
sg62
(dp1514
(I0
I0
tp1515
g1493
sstp1516
Rp1517
ag0
(g10
g2
(dp1518
g12
g0
(g13
g8
(lp1519
g667
ag0
(g15
g2
(dp1520
g17
S'vt'
p1521
sg19
I01
sg20
S'vt'
p1522
sg22
I00
sg23
I1
sg24
g73
sg26
F0.0
sg27
g73
sg29
S'vt~'
p1523
sg31
I1
sg32
g523
sg34
I01
sg35
I2
sg36
g1521
sg37
I16
stp1524
Rp1525
ag323
atp1526
Rp1527
sg42
(lp1528
g853
asg23
(lp1529
g0
(g46
g8
(lp1530
tp1531
Rp1532
(dp1533
g51
g52
(g53
tp1534
Rp1535
sg56
I00
sg57
I0
sbasg58
I67
sg59
g1490
sg62
(dp1536
(I0
I0
tp1537
g1493
sstp1538
Rp1539
ag0
(g10
g2
(dp1540
g12
g0
(g13
g8
(lp1541
g0
(g15
g2
(dp1542
g17
g1475
sg34
I00
sg20
g1476
sg22
I00
sg23
I1
sg24
g73
sg26
F0.0
sg27
g73
sg31
I1
sg29
g1477
sg32
g523
sg19
I01
sg35
I2
sg36
g1475
sg37
I12
stp1543
Rp1544
ag615
ag326
atp1545
Rp1546
sg42
(lp1547
g853
asg23
(lp1548
g0
(g46
g8
(lp1549
tp1550
Rp1551
(dp1552
g51
g52
(g53
tp1553
Rp1554
sg56
I00
sg57
I0
sbasg58
I68
sg59
g1490
sg62
(dp1555
(I0
I0
tp1556
g1493
sstp1557
Rp1558
ag0
(g10
g2
(dp1559
g12
g0
(g13
g8
(lp1560
g0
(g15
g2
(dp1561
g17
g1499
sg34
I00
sg20
g1500
sg22
I00
sg23
I1
sg24
g73
sg26
F0.0
sg27
g73
sg31
I1
sg29
g1501
sg32
g523
sg19
I01
sg35
I2
sg36
g1499
sg37
I14
stp1562
Rp1563
ag643
ag326
atp1564
Rp1565
sg42
(lp1566
g853
asg23
(lp1567
g0
(g46
g8
(lp1568
tp1569
Rp1570
(dp1571
g51
g52
(g53
tp1572
Rp1573
sg56
I00
sg57
I0
sbasg58
I69
sg59
g1490
sg62
(dp1574
(I0
I0
tp1575
g1493
sstp1576
Rp1577
ag0
(g10
g2
(dp1578
g12
g0
(g13
g8
(lp1579
g0
(g15
g2
(dp1580
g17
g1521
sg34
I00
sg20
g1522
sg22
I00
sg23
I1
sg24
g73
sg26
F0.0
sg27
g73
sg31
I1
sg29
g1523
sg32
g523
sg19
I01
sg35
I2
sg36
g1521
sg37
I16
stp1581
Rp1582
ag670
ag326
atp1583
Rp1584
sg42
(lp1585
g853
asg23
(lp1586
g0
(g46
g8
(lp1587
tp1588
Rp1589
(dp1590
g51
g52
(g53
tp1591
Rp1592
sg56
I00
sg57
I0
sbasg58
I70
sg59
g1490
sg62
(dp1593
(I0
I0
tp1594
g1493
sstp1595
Rp1596
ag0
(g10
g2
(dp1597
g12
g0
(g13
g8
(lp1598
g692
ag695
ag409
atp1599
Rp1600
sg42
(lp1601
g853
aS'FFV5'
p1602
asg23
(lp1603
g0
(g46
g8
(lp1604
g535
(I1
I0
tp1605
Rp1606
atp1607
Rp1608
(dp1609
g51
g52
(g53
tp1610
Rp1611
sg56
I00
sg57
I0
sbasg58
I71
sg59
g864
sg62
(dp1612
(I0
I1
tp1613
g867
s(I0
I0
tp1614
S'GC_28'
p1615
sstp1616
Rp1617
ag0
(g10
g2
(dp1618
g12
g0
(g13
g8
(lp1619
g722
ag725
ag409
atp1620
Rp1621
sg42
(lp1622
g853
ag1602
asg23
(lp1623
g0
(g46
g8
(lp1624
g535
(I1
I0
tp1625
Rp1626
atp1627
Rp1628
(dp1629
g51
g52
(g53
tp1630
Rp1631
sg56
I00
sg57
I0
sbasg58
I72
sg59
g864
sg62
(dp1632
(I0
I1
tp1633
g867
s(I0
I0
tp1634
g1615
sstp1635
Rp1636
ag0
(g10
g2
(dp1637
g12
g0
(g13
g8
(lp1638
g751
ag754
ag409
atp1639
Rp1640
sg42
(lp1641
g853
ag1602
asg23
(lp1642
g0
(g46
g8
(lp1643
g535
(I1
I0
tp1644
Rp1645
atp1646
Rp1647
(dp1648
g51
g52
(g53
tp1649
Rp1650
sg56
I00
sg57
I0
sbasg58
I73
sg59
g864
sg62
(dp1651
(I0
I1
tp1652
g867
s(I0
I0
tp1653
g1615
sstp1654
Rp1655
ag0
(g10
g2
(dp1656
g12
g0
(g13
g8
(lp1657
g1544
ag1479
ag409
atp1658
Rp1659
sg42
(lp1660
g853
asg23
(lp1661
g0
(g46
g8
(lp1662
tp1663
Rp1664
(dp1665
g51
g52
(g53
tp1666
Rp1667
sg56
I00
sg57
I0
sbasg58
I74
sg59
(dp1668
g61
I1
ssg62
(dp1669
(I0
I0
tp1670
S'GC_34'
p1671
sstp1672
Rp1673
ag0
(g10
g2
(dp1674
g12
g0
(g13
g8
(lp1675
g1563
ag1503
ag409
atp1676
Rp1677
sg42
(lp1678
g853
asg23
(lp1679
g0
(g46
g8
(lp1680
tp1681
Rp1682
(dp1683
g51
g52
(g53
tp1684
Rp1685
sg56
I00
sg57
I0
sbasg58
I75
sg59
g1668
sg62
(dp1686
(I0
I0
tp1687
g1671
sstp1688
Rp1689
ag0
(g10
g2
(dp1690
g12
g0
(g13
g8
(lp1691
g1582
ag1525
ag409
atp1692
Rp1693
sg42
(lp1694
g853
asg23
(lp1695
g0
(g46
g8
(lp1696
tp1697
Rp1698
(dp1699
g51
g52
(g53
tp1700
Rp1701
sg56
I00
sg57
I0
sbasg58
I76
sg59
g1668
sg62
(dp1702
(I0
I0
tp1703
g1671
sstp1704
Rp1705
atp1706
Rp1707
sS'coupling_orders'
p1708
NsS'conserved_charge'
p1709
c__builtin__
set
p1710
((lp1711
g31
ag26
atp1712
Rp1713
sS'particle_dict'
p1714
(dp1715
I1
g528
sI2
g695
sI3
g559
sI4
g725
sI5
g587
sI6
g754
sI11
g615
sI12
g1479
sI13
g643
sI14
g1503
sI15
g670
sI16
g1525
sI21
g104
sI22
g77
sI23
g409
sI24
g326
sI25
g39
sI-11
g612
sI9000006
g135
sI-24
g323
sI-16
g1582
sI-15
g667
sI-14
g1563
sI-13
g640
sI-12
g1544
sI-2
g692
sI-6
g751
sI-5
g584
sI-4
g722
sI-3
g556
sI-1
g525
ssg42
NsS'got_majoranas'
p1716
NsS'order_hierarchy'
p1717
(dp1718
g90
I2
sg120
I2
sg61
I2
sg172
I1
ssS'functions'
p1719
(lp1720
g0
(cheft.object_library
Function
p1721
c__builtin__
object
p1722
Ntp1723
Rp1724
(dp1725
S'expr'
p1726
S'z.conjugate()'
p1727
sg20
S'complexconjugate'
p1728
sS'arguments'
p1729
(S'z'
p1730
tp1731
sbag0
(g1721
g1722
Ntp1732
Rp1733
(dp1734
g1726
S'z.real'
p1735
sg20
S're'
p1736
sg1729
(g1730
tp1737
sbag0
(g1721
g1722
Ntp1738
Rp1739
(dp1740
g1726
S'z.imag'
p1741
sg20
S'im'
p1742
sg1729
(g1730
tp1743
sbag0
(g1721
g1722
Ntp1744
Rp1745
(dp1746
g1726
S'1./cmath.cos(z)'
p1747
sg20
S'sec'
p1748
sg1729
(g1730
tp1749
sbag0
(g1721
g1722
Ntp1750
Rp1751
(dp1752
g1726
S'cmath.acos(1./z)'
p1753
sg20
S'asec'
p1754
sg1729
(g1730
tp1755
sbag0
(g1721
g1722
Ntp1756
Rp1757
(dp1758
g1726
S'1./cmath.sin(z)'
p1759
sg20
S'csc'
p1760
sg1729
(g1730
tp1761
sbag0
(g1721
g1722
Ntp1762
Rp1763
(dp1764
g1726
S'cmath.asin(1./z)'
p1765
sg20
S'acsc'
p1766
sg1729
(g1730
tp1767
sbasS'interaction_dict'
p1768
(dp1769
sg20
S'heft'
p1770
sS'parameters'
p1771
(dp1772
(S'aS'
p1773
S'aEWM1'
p1774
tp1775
(lp1776
g0
(cmadgraph.core.base_objects
ModelVariable
p1777
g1722
Ntp1778
Rp1779
(dp1780
g1726
S'-(G__exp__2*(1 + (13*MH__exp__6)/(16800.*MT__exp__6) + MH__exp__4/(168.*MT__exp__4) + (7*MH__exp__2)/(120.*MT__exp__2)))/(12.*cmath.pi**2*v)'
p1781
sS'type'
p1782
S'real'
p1783
sg20
S'GH'
p1784
sS'value'
p1785
NsS'depend'
p1786
g1775
sbag0
(g1777
g1722
Ntp1787
Rp1788
(dp1789
g1726
S'-(G__exp__2*(1 + MH__exp__6/(560.*MT__exp__6) + MH__exp__4/(90.*MT__exp__4) + MH__exp__2/(12.*MT__exp__2)))/(8.*cmath.pi**2*v)'
p1790
sg1782
g1783
sg20
S'Gphi'
p1791
sg1785
Nsg1786
(g1773
g1774
tp1792
sbas(g1774
tp1793
(lp1794
g0
(g1777
g1722
Ntp1795
Rp1796
(dp1797
g1726
S'1/aEWM1'
p1798
sg1782
g1783
sg20
S'aEW'
p1799
sg1785
Nsg1786
g1793
sbag0
(g1777
g1722
Ntp1800
Rp1801
(dp1802
g1726
S'cmath.sqrt(MZ__exp__2/2. + cmath.sqrt(MZ__exp__4/4. - (aEW*cmath.pi*MZ__exp__2)/(Gf*sqrt__2)))'
p1803
sg1782
g1783
sg20
g320
sg1785
Nsg1786
(g1774
tp1804
sbag0
(g1777
g1722
Ntp1805
Rp1806
(dp1807
g1726
S' cmath.sqrt(aEW) '
p1808
sg1782
g1783
sg20
S'sqrt__aEW'
p1809
sg1785
Nsg1786
(g1774
tp1810
sbag0
(g1777
g1722
Ntp1811
Rp1812
(dp1813
g1726
S'2*sqrt__aEW*cmath.sqrt(cmath.pi)'
p1814
sg1782
g1783
sg20
S'ee'
p1815
sg1785
Nsg1786
(g1774
tp1816
sbag0
(g1777
g1722
Ntp1817
Rp1818
(dp1819
g1726
S'MW**2'
p1820
sg1782
g1783
sg20
S'MW__exp__2'
p1821
sg1785
Nsg1786
(g1774
tp1822
sbag0
(g1777
g1722
Ntp1823
Rp1824
(dp1825
g1726
S'1 - MW__exp__2/MZ__exp__2'
p1826
sg1782
g1783
sg20
S'sw2'
p1827
sg1785
Nsg1786
(g1774
tp1828
sbag0
(g1777
g1722
Ntp1829
Rp1830
(dp1831
g1726
S'cmath.sqrt(1 - sw2)'
p1832
sg1782
g1783
sg20
S'cw'
p1833
sg1785
Nsg1786
(g1774
tp1834
sbag0
(g1777
g1722
Ntp1835
Rp1836
(dp1837
g1726
S' cmath.sqrt(sw2) '
p1838
sg1782
g1783
sg20
S'sqrt__sw2'
p1839
sg1785
Nsg1786
(g1774
tp1840
sbag0
(g1777
g1722
Ntp1841
Rp1842
(dp1843
g1726
g1839
sg1782
g1783
sg20
S'sw'
p1844
sg1785
Nsg1786
(g1774
tp1845
sbag0
(g1777
g1722
Ntp1846
Rp1847
(dp1848
g1726
S'ee/cw'
p1849
sg1782
g1783
sg20
S'g1'
p1850
sg1785
Nsg1786
(g1774
tp1851
sbag0
(g1777
g1722
Ntp1852
Rp1853
(dp1854
g1726
S'ee/sw'
p1855
sg1782
g1783
sg20
S'gw'
p1856
sg1785
Nsg1786
(g1774
tp1857
sbag0
(g1777
g1722
Ntp1858
Rp1859
(dp1860
g1726
S'(2*MW*sw)/ee'
p1861
sg1782
g1783
sg20
S'v'
p1862
sg1785
Nsg1786
(g1774
tp1863
sbag0
(g1777
g1722
Ntp1864
Rp1865
(dp1866
g1726
S'ee**2'
p1867
sg1782
g1783
sg20
S'ee__exp__2'
p1868
sg1785
Nsg1786
(g1774
tp1869
sbag0
(g1777
g1722
Ntp1870
Rp1871
(dp1872
g1726
S'MW**12'
p1873
sg1782
g1783
sg20
S'MW__exp__12'
p1874
sg1785
Nsg1786
(g1774
tp1875
sbag0
(g1777
g1722
Ntp1876
Rp1877
(dp1878
g1726
S'MW**10'
p1879
sg1782
g1783
sg20
S'MW__exp__10'
p1880
sg1785
Nsg1786
(g1774
tp1881
sbag0
(g1777
g1722
Ntp1882
Rp1883
(dp1884
g1726
S'MW**8'
p1885
sg1782
g1783
sg20
S'MW__exp__8'
p1886
sg1785
Nsg1786
(g1774
tp1887
sbag0
(g1777
g1722
Ntp1888
Rp1889
(dp1890
g1726
S'MW**6'
p1891
sg1782
g1783
sg20
S'MW__exp__6'
p1892
sg1785
Nsg1786
(g1774
tp1893
sbag0
(g1777
g1722
Ntp1894
Rp1895
(dp1896
g1726
S'MW**4'
p1897
sg1782
g1783
sg20
S'MW__exp__4'
p1898
sg1785
Nsg1786
(g1774
tp1899
sbag0
(g1777
g1722
Ntp1900
Rp1901
(dp1902
g1726
S'(47*ee__exp__2*(1 - (2*MH__exp__4)/(987.*MT__exp__4) - (14*MH__exp__2)/(705.*MT__exp__2) + (213*MH__exp__12)/(2.634632e7*MW__exp__12) + (5*MH__exp__10)/(119756.*MW__exp__10) + (41*MH__exp__8)/(180950.*MW__exp__8) + (87*MH__exp__6)/(65800.*MW__exp__6) + (57*MH__exp__4)/(6580.*MW__exp__4) + (33*MH__exp__2)/(470.*MW__exp__2)))/(72.*cmath.pi**2*v)'
p1903
sg1782
g1783
sg20
S'AH'
p1904
sg1785
Nsg1786
(g1774
tp1905
sbag0
(g1777
g1722
Ntp1906
Rp1907
(dp1908
g1726
S'v**2'
p1909
sg1782
g1783
sg20
S'v__exp__2'
p1910
sg1785
Nsg1786
(g1774
tp1911
sbag0
(g1777
g1722
Ntp1912
Rp1913
(dp1914
g1726
S'MH__exp__2/(2.*v__exp__2)'
p1915
sg1782
g1783
sg20
S'lam'
p1916
sg1785
Nsg1786
(g1774
tp1917
sbag0
(g1777
g1722
Ntp1918
Rp1919
(dp1920
g1726
S'(ymb*sqrt__2)/v'
p1921
sg1782
g1783
sg20
S'yb'
p1922
sg1785
Nsg1786
(g1774
tp1923
sbag0
(g1777
g1722
Ntp1924
Rp1925
(dp1926
g1726
S'(ymc*sqrt__2)/v'
p1927
sg1782
g1783
sg20
S'yc'
p1928
sg1785
Nsg1786
(g1774
tp1929
sbag0
(g1777
g1722
Ntp1930
Rp1931
(dp1932
g1726
S'(yme*sqrt__2)/v'
p1933
sg1782
g1783
sg20
S'ye'
p1934
sg1785
Nsg1786
(g1774
tp1935
sbag0
(g1777
g1722
Ntp1936
Rp1937
(dp1938
g1726
S'(ymm*sqrt__2)/v'
p1939
sg1782
g1783
sg20
S'ym'
p1940
sg1785
Nsg1786
(g1774
tp1941
sbag0
(g1777
g1722
Ntp1942
Rp1943
(dp1944
g1726
S'(ymt*sqrt__2)/v'
p1945
sg1782
g1783
sg20
S'yt'
p1946
sg1785
Nsg1786
(g1774
tp1947
sbag0
(g1777
g1722
Ntp1948
Rp1949
(dp1950
g1726
S'(ymtau*sqrt__2)/v'
p1951
sg1782
g1783
sg20
S'ytau'
p1952
sg1785
Nsg1786
(g1774
tp1953
sbag0
(g1777
g1722
Ntp1954
Rp1955
(dp1956
g1726
S'cmath.sqrt(lam*v__exp__2)'
p1957
sg1782
g1783
sg20
S'muH'
p1958
sg1785
Nsg1786
(g1774
tp1959
sbag0
(g1777
g1722
Ntp1960
Rp1961
(dp1962
g1726
S'gw**2'
p1963
sg1782
g1783
sg20
S'gw__exp__2'
p1964
sg1785
Nsg1786
(g1774
tp1965
sbag0
(g1777
g1722
Ntp1966
Rp1967
(dp1968
g1726
S'cw**2'
p1969
sg1782
g1783
sg20
S'cw__exp__2'
p1970
sg1785
Nsg1786
(g1774
tp1971
sbag0
(g1777
g1722
Ntp1972
Rp1973
(dp1974
g1726
S'sw**2'
p1975
sg1782
g1783
sg20
S'sw__exp__2'
p1976
sg1785
Nsg1786
(g1774
tp1977
sbas(S'external'
p1978
tp1979
(lp1980
g0
(cmadgraph.core.base_objects
ParamCardVariable
p1981
g1722
Ntp1982
Rp1983
(dp1984
S'lhablock'
p1985
S'SMINPUTS'
p1986
sg20
S'aEWM1'
p1987
sg1785
F132.50698
sS'lhacode'
p1988
(lp1989
I1
asbag0
(g1981
g1722
Ntp1990
Rp1991
(dp1992
g1985
g1986
sg20
S'Gf'
p1993
sg1785
F1.16639e-05
sg1988
(lp1994
I2
asbag0
(g1981
g1722
Ntp1995
Rp1996
(dp1997
g1985
g1986
sg20
S'aS'
p1998
sg1785
F0.118
sg1988
(lp1999
I3
asbag0
(g1981
g1722
Ntp2000
Rp2001
(dp2002
g1985
S'Wolfenstein'
p2003
sg20
S'lamWS'
p2004
sg1785
F0.2253
sg1988
(lp2005
I1
asbag0
(g1981
g1722
Ntp2006
Rp2007
(dp2008
g1985
g2003
sg20
S'AWS'
p2009
sg1785
F0.808
sg1988
(lp2010
I2
asbag0
(g1981
g1722
Ntp2011
Rp2012
(dp2013
g1985
g2003
sg20
S'rhoWS'
p2014
sg1785
F0.132
sg1988
(lp2015
I3
asbag0
(g1981
g1722
Ntp2016
Rp2017
(dp2018
g1985
g2003
sg20
S'etaWS'
p2019
sg1785
F0.341
sg1988
(lp2020
I4
asbag0
(g1981
g1722
Ntp2021
Rp2022
(dp2023
g1985
S'YUKAWA'
p2024
sg20
S'ymc'
p2025
sg1785
F1.27
sg1988
(lp2026
I4
asbag0
(g1981
g1722
Ntp2027
Rp2028
(dp2029
g1985
g2024
sg20
S'ymb'
p2030
sg1785
F4.2
sg1988
(lp2031
I5
asbag0
(g1981
g1722
Ntp2032
Rp2033
(dp2034
g1985
g2024
sg20
S'ymt'
p2035
sg1785
F164.5
sg1988
(lp2036
I6
asbag0
(g1981
g1722
Ntp2037
Rp2038
(dp2039
g1985
g2024
sg20
S'yme'
p2040
sg1785
F0.0005110000000000001
sg1988
(lp2041
I11
asbag0
(g1981
g1722
Ntp2042
Rp2043
(dp2044
g1985
g2024
sg20
S'ymm'
p2045
sg1785
F0.10566
sg1988
(lp2046
I13
asbag0
(g1981
g1722
Ntp2047
Rp2048
(dp2049
g1985
g2024
sg20
S'ymtau'
p2050
sg1785
F1.777
sg1988
(lp2051
I15
asbag0
(g1981
g1722
Ntp2052
Rp2053
(dp2054
g1985
S'MASS'
p2055
sg20
g719
sg1785
F1.42
sg1988
(lp2056
I4
asbag0
(g1981
g1722
Ntp2057
Rp2058
(dp2059
g1985
g2055
sg20
g748
sg1785
F172.0
sg1988
(lp2060
I6
asbag0
(g1981
g1722
Ntp2061
Rp2062
(dp2063
g1985
g2055
sg20
g581
sg1785
F4.7
sg1988
(lp2064
I5
asbag0
(g1981
g1722
Ntp2065
Rp2066
(dp2067
g1985
g2055
sg20
g406
sg1785
F91.188
sg1988
(lp2068
I23
asbag0
(g1981
g1722
Ntp2069
Rp2070
(dp2071
g1985
g2055
sg20
g28
sg1785
F120.0
sg1988
(lp2072
I25
asbag0
(g1981
g1722
Ntp2073
Rp2074
(dp2075
g1985
g2055
sg20
g609
sg1785
F0.0005110000000000001
sg1988
(lp2076
I11
asbag0
(g1981
g1722
Ntp2077
Rp2078
(dp2079
g1985
g2055
sg20
g637
sg1785
F0.10566
sg1988
(lp2080
I13
asbag0
(g1981
g1722
Ntp2081
Rp2082
(dp2083
g1985
g2055
sg20
g664
sg1785
F1.777
sg1988
(lp2084
I15
asbag0
(g1981
g1722
Ntp2085
Rp2086
(dp2087
g1985
g2055
sg20
g132
sg1785
I120
sg1988
(lp2088
I9000006
asbag0
(g1981
g1722
Ntp2089
Rp2090
(dp2091
g1985
S'DECAY'
p2092
sg20
g747
sg1785
F1.50833649
sg1988
(lp2093
I6
asbag0
(g1981
g1722
Ntp2094
Rp2095
(dp2096
g1985
g2092
sg20
g405
sg1785
F2.44140351
sg1988
(lp2097
I23
asbag0
(g1981
g1722
Ntp2098
Rp2099
(dp2100
g1985
g2092
sg20
g319
sg1785
F2.04759951
sg1988
(lp2101
I24
asbag0
(g1981
g1722
Ntp2102
Rp2103
(dp2104
g1985
g2092
sg20
g25
sg1785
F0.00575308848
sg1988
(lp2105
I25
asbag0
(g1981
g1722
Ntp2106
Rp2107
(dp2108
g1985
g2092
sg20
g663
sg1785
F2.27e-12
sg1988
(lp2109
I15
asbag0
(g1981
g1722
Ntp2110
Rp2111
(dp2112
g1985
g2092
sg20
g131
sg1785
F0.00575308848
sg1988
(lp2113
I9000006
asbas(t(lp2114
g0
(g1777
g1722
Ntp2115
Rp2116
(dp2117
g1726
S'0.0'
p2118
sg1782
g1783
sg20
g73
sg1785
Nsg1786
(tsbag0
(g1777
g1722
Ntp2119
Rp2120
(dp2121
g1726
S'lamWS**2'
p2122
sg1782
g1783
sg20
S'lamWS__exp__2'
p2123
sg1785
Nsg1786
(tsbag0
(g1777
g1722
Ntp2124
Rp2125
(dp2126
g1726
S'1 - lamWS__exp__2/2.'
p2127
sg1782
S'complex'
p2128
sg20
S'CKM11'
p2129
sg1785
Nsg1786
(tsbag0
(g1777
g1722
Ntp2130
Rp2131
(dp2132
g1726
g2004
sg1782
g2128
sg20
S'CKM12'
p2133
sg1785
Nsg1786
(tsbag0
(g1777
g1722
Ntp2134
Rp2135
(dp2136
g1726
S'complex(0,1)'
p2137
sg1782
g2128
sg20
S'complexi'
p2138
sg1785
Nsg1786
(tsbag0
(g1777
g1722
Ntp2139
Rp2140
(dp2141
g1726
S'lamWS**3'
p2142
sg1782
g1783
sg20
S'lamWS__exp__3'
p2143
sg1785
Nsg1786
(tsbag0
(g1777
g1722
Ntp2144
Rp2145
(dp2146
g1726
S'AWS*lamWS__exp__3*(-(etaWS*complexi) + rhoWS)'
p2147
sg1782
g2128
sg20
S'CKM13'
p2148
sg1785
Nsg1786
(tsbag0
(g1777
g1722
Ntp2149
Rp2150
(dp2151
g1726
S'-lamWS'
p2152
sg1782
g2128
sg20
S'CKM21'
p2153
sg1785
Nsg1786
(tsbag0
(g1777
g1722
Ntp2154
Rp2155
(dp2156
g1726
S'1 - lamWS__exp__2/2.'
p2157
sg1782
g2128
sg20
S'CKM22'
p2158
sg1785
Nsg1786
(tsbag0
(g1777
g1722
Ntp2159
Rp2160
(dp2161
g1726
S'AWS*lamWS__exp__2'
p2162
sg1782
g2128
sg20
S'CKM23'
p2163
sg1785
Nsg1786
(tsbag0
(g1777
g1722
Ntp2164
Rp2165
(dp2166
g1726
S'AWS*lamWS__exp__3*(1 - etaWS*complexi - rhoWS)'
p2167
sg1782
g2128
sg20
S'CKM31'
p2168
sg1785
Nsg1786
(tsbag0
(g1777
g1722
Ntp2169
Rp2170
(dp2171
g1726
S'-(AWS*lamWS__exp__2)'
p2172
sg1782
g2128
sg20
S'CKM32'
p2173
sg1785
Nsg1786
(tsbag0
(g1777
g1722
Ntp2174
Rp2175
(dp2176
g1726
g53
sg1782
g2128
sg20
S'CKM33'
p2177
sg1785
Nsg1786
(tsbag0
(g1777
g1722
Ntp2178
Rp2179
(dp2180
g1726
S'MZ**2'
p2181
sg1782
g1783
sg20
S'MZ__exp__2'
p2182
sg1785
Nsg1786
(tsbag0
(g1777
g1722
Ntp2183
Rp2184
(dp2185
g1726
S'MZ**4'
p2186
sg1782
g1783
sg20
S'MZ__exp__4'
p2187
sg1785
Nsg1786
(tsbag0
(g1777
g1722
Ntp2188
Rp2189
(dp2190
g1726
S' cmath.sqrt(2) '
p2191
sg1782
g1783
sg20
S'sqrt__2'
p2192
sg1785
Nsg1786
(tsbag0
(g1777
g1722
Ntp2193
Rp2194
(dp2195
g1726
S'MH**4'
p2196
sg1782
g1783
sg20
S'MH__exp__4'
p2197
sg1785
Nsg1786
(tsbag0
(g1777
g1722
Ntp2198
Rp2199
(dp2200
g1726
S'MT**4'
p2201
sg1782
g1783
sg20
S'MT__exp__4'
p2202
sg1785
Nsg1786
(tsbag0
(g1777
g1722
Ntp2203
Rp2204
(dp2205
g1726
S'MH**2'
p2206
sg1782
g1783
sg20
S'MH__exp__2'
p2207
sg1785
Nsg1786
(tsbag0
(g1777
g1722
Ntp2208
Rp2209
(dp2210
g1726
S'MT**2'
p2211
sg1782
g1783
sg20
S'MT__exp__2'
p2212
sg1785
Nsg1786
(tsbag0
(g1777
g1722
Ntp2213
Rp2214
(dp2215
g1726
S'MH**12'
p2216
sg1782
g1783
sg20
S'MH__exp__12'
p2217
sg1785
Nsg1786
(tsbag0
(g1777
g1722
Ntp2218
Rp2219
(dp2220
g1726
S'MH**10'
p2221
sg1782
g1783
sg20
S'MH__exp__10'
p2222
sg1785
Nsg1786
(tsbag0
(g1777
g1722
Ntp2223
Rp2224
(dp2225
g1726
S'MH**8'
p2226
sg1782
g1783
sg20
S'MH__exp__8'
p2227
sg1785
Nsg1786
(tsbag0
(g1777
g1722
Ntp2228
Rp2229
(dp2230
g1726
S'MH**6'
p2231
sg1782
g1783
sg20
S'MH__exp__6'
p2232
sg1785
Nsg1786
(tsbag0
(g1777
g1722
Ntp2233
Rp2234
(dp2235
g1726
S'MT**6'
p2236
sg1782
g1783
sg20
S'MT__exp__6'
p2237
sg1785
Nsg1786
(tsbag0
(g1777
g1722
Ntp2238
Rp2239
(dp2240
g1726
S' complexconjugate(CKM11) '
p2241
sg1782
g2128
sg20
S'conjg__CKM11'
p2242
sg1785
Nsg1786
(tsbag0
(g1777
g1722
Ntp2243
Rp2244
(dp2245
g1726
S' complexconjugate(CKM12) '
p2246
sg1782
g2128
sg20
S'conjg__CKM12'
p2247
sg1785
Nsg1786
(tsbag0
(g1777
g1722
Ntp2248
Rp2249
(dp2250
g1726
S' complexconjugate(CKM13) '
p2251
sg1782
g2128
sg20
S'conjg__CKM13'
p2252
sg1785
Nsg1786
(tsbag0
(g1777
g1722
Ntp2253
Rp2254
(dp2255
g1726
S' complexconjugate(CKM21) '
p2256
sg1782
g2128
sg20
S'conjg__CKM21'
p2257
sg1785
Nsg1786
(tsbag0
(g1777
g1722
Ntp2258
Rp2259
(dp2260
g1726
S' complexconjugate(CKM22) '
p2261
sg1782
g2128
sg20
S'conjg__CKM22'
p2262
sg1785
Nsg1786
(tsbag0
(g1777
g1722
Ntp2263
Rp2264
(dp2265
g1726
S' complexconjugate(CKM23) '
p2266
sg1782
g2128
sg20
S'conjg__CKM23'
p2267
sg1785
Nsg1786
(tsbag0
(g1777
g1722
Ntp2268
Rp2269
(dp2270
g1726
S' complexconjugate(CKM31) '
p2271
sg1782
g2128
sg20
S'conjg__CKM31'
p2272
sg1785
Nsg1786
(tsbag0
(g1777
g1722
Ntp2273
Rp2274
(dp2275
g1726
S' complexconjugate(CKM32) '
p2276
sg1782
g2128
sg20
S'conjg__CKM32'
p2277
sg1785
Nsg1786
(tsbag0
(g1777
g1722
Ntp2278
Rp2279
(dp2280
g1726
S' complexconjugate(CKM33) '
p2281
sg1782
g2128
sg20
S'conjg__CKM33'
p2282
sg1785
Nsg1786
(tsbas(g1773
tp2283
(lp2284
g0
(g1777
g1722
Ntp2285
Rp2286
(dp2287
g1726
S' cmath.sqrt(aS) '
p2288
sg1782
g1783
sg20
S'sqrt__aS'
p2289
sg1785
Nsg1786
g2283
sbag0
(g1777
g1722
Ntp2290
Rp2291
(dp2292
g1726
S'2*sqrt__aS*cmath.sqrt(cmath.pi)'
p2293
sg1782
g1783
sg20
g99
sg1785
Nsg1786
(g1773
tp2294
sbag0
(g1777
g1722
Ntp2295
Rp2296
(dp2297
g1726
S'G**2'
p2298
sg1782
g1783
sg20
S'G__exp__2'
p2299
sg1785
Nsg1786
(g1773
tp2300
sbassS'ref_dict_to1'
p2301
(dp2302
sS'expansion_order'
p2303
(dp2304
g90
I1
sg120
I1
sg61
I99
sg172
I99
ssS'version_tag'
p2305
S"/home/ck14/uwcyr/tp1/blatt_2/MadGraph5_v1_3_20/models/heft{'date': '2011-10-09', 'version': '1.3.20'}"
p2306
sg12
g0
(g13
g8
(lp2307
g1479
ag1503
ag1525
ag695
ag725
ag754
ag528
ag559
ag587
ag77
ag409
ag326
ag104
ag39
ag615
ag643
ag670
ag135
atp2308
Rp2309
sg62
(dp2310
(g1774
tp2311
(lp2312
g0
(g1777
g1722
Ntp2313
Rp2314
(dp2315
g1726
S'-(AH*complexi)'
p2316
sg1782
g2128
sg20
g93
sg1785
Nsg1786
g2311
sbag0
(g1777
g1722
Ntp2317
Rp2318
(dp2319
g1726
S'-(ee*complexi)/3.'
p2320
sg1782
g2128
sg20
g546
sg1785
Nsg1786
(g1774
tp2321
sbag0
(g1777
g1722
Ntp2322
Rp2323
(dp2324
g1726
S'(2*ee*complexi)/3.'
p2325
sg1782
g2128
sg20
g711
sg1785
Nsg1786
(g1774
tp2326
sbag0
(g1777
g1722
Ntp2327
Rp2328
(dp2329
g1726
S'-(ee*complexi)'
p2330
sg1782
g2128
sg20
g629
sg1785
Nsg1786
(g1774
tp2331
sbag0
(g1777
g1722
Ntp2332
Rp2333
(dp2334
g1726
S'cw*complexi*gw'
p2335
sg1782
g2128
sg20
g423
sg1785
Nsg1786
(g1774
tp2336
sbag0
(g1777
g1722
Ntp2337
Rp2338
(dp2339
g1726
S'-(complexi*gw__exp__2)'
p2340
sg1782
g2128
sg20
g441
sg1785
Nsg1786
(g1774
tp2341
sbag0
(g1777
g1722
Ntp2342
Rp2343
(dp2344
g1726
S'cw__exp__2*complexi*gw__exp__2'
p2345
sg1782
g2128
sg20
g514
sg1785
Nsg1786
(g1774
tp2346
sbag0
(g1777
g1722
Ntp2347
Rp2348
(dp2349
g1726
S'(ee__exp__2*complexi)/(2.*sw__exp__2)'
p2350
sg1782
g2128
sg20
g359
sg1785
Nsg1786
(g1774
tp2351
sbag0
(g1777
g1722
Ntp2352
Rp2353
(dp2354
g1726
S'(ee*complexi)/(sw*sqrt__2)'
p2355
sg1782
g2128
sg20
g1493
sg1785
Nsg1786
(g1774
tp2356
sbag0
(g1777
g1722
Ntp2357
Rp2358
(dp2359
g1726
S'(CKM11*ee*complexi)/(sw*sqrt__2)'
p2360
sg1782
g2128
sg20
g927
sg1785
Nsg1786
(g1774
tp2361
sbag0
(g1777
g1722
Ntp2362
Rp2363
(dp2364
g1726
S'(CKM12*ee*complexi)/(sw*sqrt__2)'
p2365
sg1782
g2128
sg20
g987
sg1785
Nsg1786
(g1774
tp2366
sbag0
(g1777
g1722
Ntp2367
Rp2368
(dp2369
g1726
S'(CKM13*ee*complexi)/(sw*sqrt__2)'
p2370
sg1782
g2128
sg20
g1047
sg1785
Nsg1786
(g1774
tp2371
sbag0
(g1777
g1722
Ntp2372
Rp2373
(dp2374
g1726
S'(CKM21*ee*complexi)/(sw*sqrt__2)'
p2375
sg1782
g2128
sg20
g947
sg1785
Nsg1786
(g1774
tp2376
sbag0
(g1777
g1722
Ntp2377
Rp2378
(dp2379
g1726
S'(CKM22*ee*complexi)/(sw*sqrt__2)'
p2380
sg1782
g2128
sg20
g1007
sg1785
Nsg1786
(g1774
tp2381
sbag0
(g1777
g1722
Ntp2382
Rp2383
(dp2384
g1726
S'(CKM23*ee*complexi)/(sw*sqrt__2)'
p2385
sg1782
g2128
sg20
g1067
sg1785
Nsg1786
(g1774
tp2386
sbag0
(g1777
g1722
Ntp2387
Rp2388
(dp2389
g1726
S'(CKM31*ee*complexi)/(sw*sqrt__2)'
p2390
sg1782
g2128
sg20
g967
sg1785
Nsg1786
(g1774
tp2391
sbag0
(g1777
g1722
Ntp2392
Rp2393
(dp2394
g1726
S'(CKM32*ee*complexi)/(sw*sqrt__2)'
p2395
sg1782
g2128
sg20
g1027
sg1785
Nsg1786
(g1774
tp2396
sbag0
(g1777
g1722
Ntp2397
Rp2398
(dp2399
g1726
S'(CKM33*ee*complexi)/(sw*sqrt__2)'
p2400
sg1782
g2128
sg20
g1087
sg1785
Nsg1786
(g1774
tp2401
sbag0
(g1777
g1722
Ntp2402
Rp2403
(dp2404
g1726
S'-(cw*ee*complexi)/(2.*sw)'
p2405
sg1782
g2128
sg20
g869
sg1785
Nsg1786
(g1774
tp2406
sbag0
(g1777
g1722
Ntp2407
Rp2408
(dp2409
g1726
S'(cw*ee*complexi)/(2.*sw)'
p2410
sg1782
g2128
sg20
g1615
sg1785
Nsg1786
(g1774
tp2411
sbag0
(g1777
g1722
Ntp2412
Rp2413
(dp2414
g1726
S'-(ee*complexi*sw)/(6.*cw)'
p2415
sg1782
g2128
sg20
g867
sg1785
Nsg1786
(g1774
tp2416
sbag0
(g1777
g1722
Ntp2417
Rp2418
(dp2419
g1726
S'(ee*complexi*sw)/(2.*cw)'
p2420
sg1782
g2128
sg20
g1434
sg1785
Nsg1786
(g1774
tp2421
sbag0
(g1777
g1722
Ntp2422
Rp2423
(dp2424
g1726
S'complexi*gw*sw'
p2425
sg1782
g2128
sg20
g340
sg1785
Nsg1786
(g1774
tp2426
sbag0
(g1777
g1722
Ntp2427
Rp2428
(dp2429
g1726
S'-2*cw*complexi*gw__exp__2*sw'
p2430
sg1782
g2128
sg20
g460
sg1785
Nsg1786
(g1774
tp2431
sbag0
(g1777
g1722
Ntp2432
Rp2433
(dp2434
g1726
S'complexi*gw__exp__2*sw__exp__2'
p2435
sg1782
g2128
sg20
g397
sg1785
Nsg1786
(g1774
tp2436
sbag0
(g1777
g1722
Ntp2437
Rp2438
(dp2439
g1726
S'(cw*ee*complexi)/(2.*sw) + (ee*complexi*sw)/(2.*cw)'
p2440
sg1782
g2128
sg20
g1671
sg1785
Nsg1786
(g1774
tp2441
sbag0
(g1777
g1722
Ntp2442
Rp2443
(dp2444
g1726
S'ee__exp__2*complexi + (cw__exp__2*ee__exp__2*complexi)/(2.*sw__exp__2) + (ee__exp__2*complexi*sw__exp__2)/(2.*cw__exp__2)'
p2445
sg1782
g2128
sg20
g478
sg1785
Nsg1786
(g1774
tp2446
sbag0
(g1777
g1722
Ntp2447
Rp2448
(dp2449
g1726
S'-6*complexi*lam*v'
p2450
sg1782
g2128
sg20
g65
sg1785
Nsg1786
(g1774
tp2451
sbag0
(g1777
g1722
Ntp2452
Rp2453
(dp2454
g1726
S'(ee__exp__2*complexi*v)/(2.*sw__exp__2)'
p2455
sg1782
g2128
sg20
g378
sg1785
Nsg1786
(g1774
tp2456
sbag0
(g1777
g1722
Ntp2457
Rp2458
(dp2459
g1726
S'ee__exp__2*complexi*v + (cw__exp__2*ee__exp__2*complexi*v)/(2.*sw__exp__2) + (ee__exp__2*complexi*sw__exp__2*v)/(2.*cw__exp__2)'
p2460
sg1782
g2128
sg20
g496
sg1785
Nsg1786
(g1774
tp2461
sbag0
(g1777
g1722
Ntp2462
Rp2463
(dp2464
g1726
S'-((complexi*yb)/sqrt__2)'
p2465
sg1782
g2128
sg20
g845
sg1785
Nsg1786
(g1774
tp2466
sbag0
(g1777
g1722
Ntp2467
Rp2468
(dp2469
g1726
S'-((complexi*yc)/sqrt__2)'
p2470
sg1782
g2128
sg20
g1395
sg1785
Nsg1786
(g1774
tp2471
sbag0
(g1777
g1722
Ntp2472
Rp2473
(dp2474
g1726
S'-((complexi*ye)/sqrt__2)'
p2475
sg1782
g2128
sg20
g1339
sg1785
Nsg1786
(g1774
tp2476
sbag0
(g1777
g1722
Ntp2477
Rp2478
(dp2479
g1726
S'-((complexi*ym)/sqrt__2)'
p2480
sg1782
g2128
sg20
g1357
sg1785
Nsg1786
(g1774
tp2481
sbag0
(g1777
g1722
Ntp2482
Rp2483
(dp2484
g1726
S'-((complexi*yt)/sqrt__2)'
p2485
sg1782
g2128
sg20
g1415
sg1785
Nsg1786
(g1774
tp2486
sbag0
(g1777
g1722
Ntp2487
Rp2488
(dp2489
g1726
S'-((complexi*ytau)/sqrt__2)'
p2490
sg1782
g2128
sg20
g1375
sg1785
Nsg1786
(g1774
tp2491
sbag0
(g1777
g1722
Ntp2492
Rp2493
(dp2494
g1726
S'(ee*complexi*conjg__CKM11)/(sw*sqrt__2)'
p2495
sg1782
g2128
sg20
g1107
sg1785
Nsg1786
(g1774
tp2496
sbag0
(g1777
g1722
Ntp2497
Rp2498
(dp2499
g1726
S'(ee*complexi*conjg__CKM12)/(sw*sqrt__2)'
p2500
sg1782
g2128
sg20
g1167
sg1785
Nsg1786
(g1774
tp2501
sbag0
(g1777
g1722
Ntp2502
Rp2503
(dp2504
g1726
S'(ee*complexi*conjg__CKM13)/(sw*sqrt__2)'
p2505
sg1782
g2128
sg20
g1227
sg1785
Nsg1786
(g1774
tp2506
sbag0
(g1777
g1722
Ntp2507
Rp2508
(dp2509
g1726
S'(ee*complexi*conjg__CKM21)/(sw*sqrt__2)'
p2510
sg1782
g2128
sg20
g1127
sg1785
Nsg1786
(g1774
tp2511
sbag0
(g1777
g1722
Ntp2512
Rp2513
(dp2514
g1726
S'(ee*complexi*conjg__CKM22)/(sw*sqrt__2)'
p2515
sg1782
g2128
sg20
g1187
sg1785
Nsg1786
(g1774
tp2516
sbag0
(g1777
g1722
Ntp2517
Rp2518
(dp2519
g1726
S'(ee*complexi*conjg__CKM23)/(sw*sqrt__2)'
p2520
sg1782
g2128
sg20
g1247
sg1785
Nsg1786
(g1774
tp2521
sbag0
(g1777
g1722
Ntp2522
Rp2523
(dp2524
g1726
S'(ee*complexi*conjg__CKM31)/(sw*sqrt__2)'
p2525
sg1782
g2128
sg20
g1147
sg1785
Nsg1786
(g1774
tp2526
sbag0
(g1777
g1722
Ntp2527
Rp2528
(dp2529
g1726
S'(ee*complexi*conjg__CKM32)/(sw*sqrt__2)'
p2530
sg1782
g2128
sg20
g1207
sg1785
Nsg1786
(g1774
tp2531
sbag0
(g1777
g1722
Ntp2532
Rp2533
(dp2534
g1726
S'(ee*complexi*conjg__CKM33)/(sw*sqrt__2)'
p2535
sg1782
g2128
sg20
g1267
sg1785
Nsg1786
(g1774
tp2536
sbas(g1773
g1774
tp2537
(lp2538
g0
(g1777
g1722
Ntp2539
Rp2540
(dp2541
g1726
S'-(complexi*GH)'
p2542
sg1782
g2128
sg20
g123
sg1785
Nsg1786
g2537
sbag0
(g1777
g1722
Ntp2543
Rp2544
(dp2545
g1726
S'-(G*GH)'
p2546
sg1782
g2128
sg20
g264
sg1785
Nsg1786
(g1773
g1774
tp2547
sbag0
(g1777
g1722
Ntp2548
Rp2549
(dp2550
g1726
S'complexi*G__exp__2*GH'
p2551
sg1782
g2128
sg20
g309
sg1785
Nsg1786
(g1773
g1774
tp2552
sbag0
(g1777
g1722
Ntp2553
Rp2554
(dp2555
g1726
S'(complexi*Gphi)/8.'
p2556
sg1782
g2128
sg20
g152
sg1785
Nsg1786
(g1773
g1774
tp2557
sbag0
(g1777
g1722
Ntp2558
Rp2559
(dp2560
g1726
S'-(G*Gphi)/4.'
p2561
sg1782
g2128
sg20
g243
sg1785
Nsg1786
(g1773
g1774
tp2562
sbas(g1773
tp2563
(lp2564
g0
(g1777
g1722
Ntp2565
Rp2566
(dp2567
g1726
S'-G'
p2568
sg1782
g2128
sg20
g175
sg1785
Nsg1786
g2563
sbag0
(g1777
g1722
Ntp2569
Rp2570
(dp2571
g1726
S'complexi*G'
p2572
sg1782
g2128
sg20
g788
sg1785
Nsg1786
(g1773
tp2573
sbag0
(g1777
g1722
Ntp2574
Rp2575
(dp2576
g1726
S'complexi*G__exp__2'
p2577
sg1782
g2128
sg20
g220
sg1785
Nsg1786
(g1773
tp2578
sbasstp2579
Rp2580
.