ccopy_reg
_reconstructor
p0
(cmadgraph.core.base_objects
Model
p1
c__builtin__
dict
p2
(dp3
S'ref_dict_to0'
p4
(dp5
sS'interactions'
p6
g0
(cmadgraph.core.base_objects
InteractionList
p7
c__builtin__
list
p8
(lp9
g0
(cmadgraph.core.base_objects
Interaction
p10
g2
(dp11
S'particles'
p12
g0
(cmadgraph.core.base_objects
ParticleList
p13
g8
(lp14
g0
(cmadgraph.core.base_objects
Particle
p15
g2
(dp16
S'texname'
p17
S'\\phi'
p18
sS'propagating'
p19
I01
sS'name'
p20
S'h'
p21
sS'self_antipart'
p22
I01
sS'color'
p23
I1
sS'width'
p24
S'WH'
p25
sS'charge'
p26
F0.0
sS'mass'
p27
S'MH'
p28
sS'antiname'
p29
S'h'
p30
sS'LeptonNumber'
p31
I0
sS'line'
p32
S'dashed'
p33
sS'is_part'
p34
I01
sS'spin'
p35
I1
sS'antitexname'
p36
g18
sS'pdg_code'
p37
I25
stp38
Rp39
ag39
ag39
atp40
Rp41
sS'lorentz'
p42
(lp43
S'SSS1'
p44
asg23
(lp45
g0
(cmadgraph.core.color_algebra
ColorString
p46
g8
(lp47
tp48
Rp49
(dp50
S'coeff'
p51
cfractions
Fraction
p52
(S'1'
p53
tp54
Rp55
sS'is_imaginary'
p56
I00
sS'Nc_power'
p57
I0
sbasS'id'
p58
I1
sS'orders'
p59
(dp60
S'QED'
p61
I1
ssS'couplings'
p62
(dp63
(I0
I0
tp64
S'GC_30'
p65
sstp66
Rp67
ag0
(g10
g2
(dp68
g12
g0
(g13
g8
(lp69
g0
(g15
g2
(dp70
g17
S'G'
p71
sg19
I01
sg20
S'g'
p72
sg22
I01
sg23
I8
sg24
S'ZERO'
p73
sg26
F0.0
sg27
g73
sg29
S'g'
p74
sg31
I0
sg32
S'curly'
p75
sg34
I01
sg35
I3
sg36
g71
sg37
I21
stp76
Rp77
ag77
ag77
atp78
Rp79
sg42
(lp80
S'VVV1'
p81
asg23
(lp82
g0
(g46
g8
(lp83
cmadgraph.core.color_algebra
f
p84
(I0
I1
I2
tp85
Rp86
atp87
Rp88
(dp89
g51
g52
(g53
tp90
Rp91
sg56
I00
sg57
I0
sbasg58
I2
sg59
(dp92
S'QCD'
p93
I1
ssg62
(dp94
(I0
I0
tp95
S'GC_4'
p96
sstp97
Rp98
ag0
(g10
g2
(dp99
g12
g0
(g13
g8
(lp100
g77
ag77
ag77
ag77
atp101
Rp102
sg42
(lp103
S'VVVV1'
p104
aS'VVVV3'
p105
aS'VVVV4'
p106
asg23
(lp107
g0
(g46
g8
(lp108
g84
(I-1
I0
I1
tp109
Rp110
ag84
(I2
I3
I-1
tp111
Rp112
atp113
Rp114
(dp115
g51
g52
(g53
tp116
Rp117
sg56
I00
sg57
I0
sbag0
(g46
g8
(lp118
g84
(I-1
I0
I2
tp119
Rp120
ag84
(I1
I3
I-1
tp121
Rp122
atp123
Rp124
(dp125
g51
g52
(g53
tp126
Rp127
sg56
I00
sg57
I0
sbag0
(g46
g8
(lp128
g84
(I-1
I0
I3
tp129
Rp130
ag84
(I1
I2
I-1
tp131
Rp132
atp133
Rp134
(dp135
g51
g52
(g53
tp136
Rp137
sg56
I00
sg57
I0
sbasg58
I3
sg59
(dp138
g93
I2
ssg62
(dp139
(I0
I0
tp140
S'GC_6'
p141
s(I1
I1
tp142
g141
s(I2
I2
tp143
g141
sstp144
Rp145
ag0
(g10
g2
(dp146
g12
g0
(g13
g8
(lp147
g0
(g15
g2
(dp148
g17
S'A'
p149
sg19
I01
sg20
S'a'
p150
sg22
I01
sg23
I1
sg24
g73
sg26
F0.0
sg27
g73
sg29
S'a'
p151
sg31
I0
sg32
S'wavy'
p152
sg34
I01
sg35
I3
sg36
g149
sg37
I22
stp153
Rp154
ag0
(g15
g2
(dp155
g17
S'W+'
p156
sg34
I00
sg20
S'w+'
p157
sg22
I00
sg23
I1
sg24
S'WW'
p158
sg26
F1.0
sg27
S'MW'
p159
sg31
I0
sg29
S'w-'
p160
sg32
g152
sg19
I01
sg35
I3
sg36
g156
sg37
I24
stp161
Rp162
ag0
(g15
g2
(dp163
g17
g156
sg19
I01
sg20
g157
sg22
I00
sg23
I1
sg24
g158
sg26
F1.0
sg27
g159
sg29
g160
sg31
I0
sg32
g152
sg34
I01
sg35
I3
sg36
g156
sg37
I24
stp164
Rp165
atp166
Rp167
sg42
(lp168
g81
asg23
(lp169
g0
(g46
g8
(lp170
tp171
Rp172
(dp173
g51
g52
(g53
tp174
Rp175
sg56
I00
sg57
I0
sbasg58
I4
sg59
(dp176
g61
I1
ssg62
(dp177
(I0
I0
tp178
S'GC_25'
p179
sstp180
Rp181
ag0
(g10
g2
(dp182
g12
g0
(g13
g8
(lp183
g162
ag165
ag39
ag39
atp184
Rp185
sg42
(lp186
S'VVSS1'
p187
asg23
(lp188
g0
(g46
g8
(lp189
tp190
Rp191
(dp192
g51
g52
(g53
tp193
Rp194
sg56
I00
sg57
I0
sbasg58
I5
sg59
(dp195
g61
I2
ssg62
(dp196
(I0
I0
tp197
S'GC_10'
p198
sstp199
Rp200
ag0
(g10
g2
(dp201
g12
g0
(g13
g8
(lp202
g162
ag165
ag39
atp203
Rp204
sg42
(lp205
S'VVS1'
p206
asg23
(lp207
g0
(g46
g8
(lp208
tp209
Rp210
(dp211
g51
g52
(g53
tp212
Rp213
sg56
I00
sg57
I0
sbasg58
I6
sg59
(dp214
g61
I1
ssg62
(dp215
(I0
I0
tp216
S'GC_31'
p217
sstp218
Rp219
ag0
(g10
g2
(dp220
g12
g0
(g13
g8
(lp221
g154
ag154
ag162
ag165
atp222
Rp223
sg42
(lp224
S'VVVV2'
p225
asg23
(lp226
g0
(g46
g8
(lp227
tp228
Rp229
(dp230
g51
g52
(g53
tp231
Rp232
sg56
I00
sg57
I0
sbasg58
I7
sg59
(dp233
g61
I2
ssg62
(dp234
(I0
I0
tp235
S'GC_27'
p236
sstp237
Rp238
ag0
(g10
g2
(dp239
g12
g0
(g13
g8
(lp240
g162
ag165
ag0
(g15
g2
(dp241
g17
S'Z'
p242
sg19
I01
sg20
S'z'
p243
sg22
I01
sg23
I1
sg24
S'WZ'
p244
sg26
F0.0
sg27
S'MZ'
p245
sg29
S'z'
p246
sg31
I0
sg32
g152
sg34
I01
sg35
I3
sg36
g242
sg37
I23
stp247
Rp248
atp249
Rp250
sg42
(lp251
g81
asg23
(lp252
g0
(g46
g8
(lp253
tp254
Rp255
(dp256
g51
g52
(g53
tp257
Rp258
sg56
I00
sg57
I0
sbasg58
I8
sg59
(dp259
g61
I1
ssg62
(dp260
(I0
I0
tp261
S'GC_7'
p262
sstp263
Rp264
ag0
(g10
g2
(dp265
g12
g0
(g13
g8
(lp266
g162
ag162
ag165
ag165
atp267
Rp268
sg42
(lp269
g225
asg23
(lp270
g0
(g46
g8
(lp271
tp272
Rp273
(dp274
g51
g52
(g53
tp275
Rp276
sg56
I00
sg57
I0
sbasg58
I9
sg59
(dp277
g61
I2
ssg62
(dp278
(I0
I0
tp279
S'GC_8'
p280
sstp281
Rp282
ag0
(g10
g2
(dp283
g12
g0
(g13
g8
(lp284
g154
ag162
ag165
ag248
atp285
Rp286
sg42
(lp287
S'VVVV5'
p288
asg23
(lp289
g0
(g46
g8
(lp290
tp291
Rp292
(dp293
g51
g52
(g53
tp294
Rp295
sg56
I00
sg57
I0
sbasg58
I10
sg59
(dp296
g61
I2
ssg62
(dp297
(I0
I0
tp298
S'GC_26'
p299
sstp300
Rp301
ag0
(g10
g2
(dp302
g12
g0
(g13
g8
(lp303
g248
ag248
ag39
ag39
atp304
Rp305
sg42
(lp306
g187
asg23
(lp307
g0
(g46
g8
(lp308
tp309
Rp310
(dp311
g51
g52
(g53
tp312
Rp313
sg56
I00
sg57
I0
sbasg58
I11
sg59
(dp314
g61
I2
ssg62
(dp315
(I0
I0
tp316
S'GC_29'
p317
sstp318
Rp319
ag0
(g10
g2
(dp320
g12
g0
(g13
g8
(lp321
g248
ag248
ag39
atp322
Rp323
sg42
(lp324
g206
asg23
(lp325
g0
(g46
g8
(lp326
tp327
Rp328
(dp329
g51
g52
(g53
tp330
Rp331
sg56
I00
sg57
I0
sbasg58
I12
sg59
(dp332
g61
I1
ssg62
(dp333
(I0
I0
tp334
S'GC_32'
p335
sstp336
Rp337
ag0
(g10
g2
(dp338
g12
g0
(g13
g8
(lp339
g162
ag165
ag248
ag248
atp340
Rp341
sg42
(lp342
g225
asg23
(lp343
g0
(g46
g8
(lp344
tp345
Rp346
(dp347
g51
g52
(g53
tp348
Rp349
sg56
I00
sg57
I0
sbasg58
I13
sg59
(dp350
g61
I2
ssg62
(dp351
(I0
I0
tp352
S'GC_9'
p353
sstp354
Rp355
ag0
(g10
g2
(dp356
g12
g0
(g13
g8
(lp357
g0
(g15
g2
(dp358
g17
S'd'
p359
sg34
I00
sg20
S'd'
p360
sg22
I00
sg23
I3
sg24
g73
sg26
F-0.3333333333333333
sg27
g73
sg31
I0
sg29
S'd~'
p361
sg32
S'straight'
p362
sg19
I01
sg35
I2
sg36
g359
sg37
I1
stp363
Rp364
ag0
(g15
g2
(dp365
g17
g359
sg19
I01
sg20
g360
sg22
I00
sg23
I3
sg24
g73
sg26
F-0.3333333333333333
sg27
g73
sg29
g361
sg31
I0
sg32
g362
sg34
I01
sg35
I2
sg36
g359
sg37
I1
stp366
Rp367
ag154
atp368
Rp369
sg42
(lp370
S'FFV1'
p371
asg23
(lp372
g0
(g46
g8
(lp373
cmadgraph.core.color_algebra
T
p374
(I1
I0
tp375
Rp376
atp377
Rp378
(dp379
g51
g52
(g53
tp380
Rp381
sg56
I00
sg57
I0
sbasg58
I14
sg59
(dp382
g61
I1
ssg62
(dp383
(I0
I0
tp384
S'GC_1'
p385
sstp386
Rp387
ag0
(g10
g2
(dp388
g12
g0
(g13
g8
(lp389
g0
(g15
g2
(dp390
g17
S's'
p391
sg34
I00
sg20
S's'
p392
sg22
I00
sg23
I3
sg24
g73
sg26
F-0.3333333333333333
sg27
g73
sg31
I0
sg29
S's~'
p393
sg32
g362
sg19
I01
sg35
I2
sg36
g391
sg37
I3
stp394
Rp395
ag0
(g15
g2
(dp396
g17
g391
sg19
I01
sg20
g392
sg22
I00
sg23
I3
sg24
g73
sg26
F-0.3333333333333333
sg27
g73
sg29
g393
sg31
I0
sg32
g362
sg34
I01
sg35
I2
sg36
g391
sg37
I3
stp397
Rp398
ag154
atp399
Rp400
sg42
(lp401
g371
asg23
(lp402
g0
(g46
g8
(lp403
g374
(I1
I0
tp404
Rp405
atp406
Rp407
(dp408
g51
g52
(g53
tp409
Rp410
sg56
I00
sg57
I0
sbasg58
I15
sg59
g382
sg62
(dp411
(I0
I0
tp412
g385
sstp413
Rp414
ag0
(g10
g2
(dp415
g12
g0
(g13
g8
(lp416
g0
(g15
g2
(dp417
g17
S'b'
p418
sg34
I00
sg20
S'b'
p419
sg22
I00
sg23
I3
sg24
g73
sg26
F-0.3333333333333333
sg27
S'MB'
p420
sg31
I0
sg29
S'b~'
p421
sg32
g362
sg19
I01
sg35
I2
sg36
g418
sg37
I5
stp422
Rp423
ag0
(g15
g2
(dp424
g17
g418
sg19
I01
sg20
g419
sg22
I00
sg23
I3
sg24
g73
sg26
F-0.3333333333333333
sg27
g420
sg29
g421
sg31
I0
sg32
g362
sg34
I01
sg35
I2
sg36
g418
sg37
I5
stp425
Rp426
ag154
atp427
Rp428
sg42
(lp429
g371
asg23
(lp430
g0
(g46
g8
(lp431
g374
(I1
I0
tp432
Rp433
atp434
Rp435
(dp436
g51
g52
(g53
tp437
Rp438
sg56
I00
sg57
I0
sbasg58
I16
sg59
g382
sg62
(dp439
(I0
I0
tp440
g385
sstp441
Rp442
ag0
(g10
g2
(dp443
g12
g0
(g13
g8
(lp444
g0
(g15
g2
(dp445
g17
S'e-'
p446
sg34
I00
sg20
S'e-'
p447
sg22
I00
sg23
I1
sg24
g73
sg26
F-1.0
sg27
S'Me'
p448
sg31
I1
sg29
S'e+'
p449
sg32
g362
sg19
I01
sg35
I2
sg36
g446
sg37
I11
stp450
Rp451
ag0
(g15
g2
(dp452
g17
g446
sg19
I01
sg20
g447
sg22
I00
sg23
I1
sg24
g73
sg26
F-1.0
sg27
g448
sg29
g449
sg31
I1
sg32
g362
sg34
I01
sg35
I2
sg36
g446
sg37
I11
stp453
Rp454
ag154
atp455
Rp456
sg42
(lp457
g371
asg23
(lp458
g0
(g46
g8
(lp459
tp460
Rp461
(dp462
g51
g52
(g53
tp463
Rp464
sg56
I00
sg57
I0
sbasg58
I17
sg59
(dp465
g61
I1
ssg62
(dp466
(I0
I0
tp467
S'GC_3'
p468
sstp469
Rp470
ag0
(g10
g2
(dp471
g12
g0
(g13
g8
(lp472
g0
(g15
g2
(dp473
g17
S'm-'
p474
sg34
I00
sg20
S'm-'
p475
sg22
I00
sg23
I1
sg24
g73
sg26
F-1.0
sg27
S'MM'
p476
sg31
I1
sg29
S'm+'
p477
sg32
g362
sg19
I01
sg35
I2
sg36
g474
sg37
I13
stp478
Rp479
ag0
(g15
g2
(dp480
g17
g474
sg19
I01
sg20
g475
sg22
I00
sg23
I1
sg24
g73
sg26
F-1.0
sg27
g476
sg29
g477
sg31
I1
sg32
g362
sg34
I01
sg35
I2
sg36
g474
sg37
I13
stp481
Rp482
ag154
atp483
Rp484
sg42
(lp485
g371
asg23
(lp486
g0
(g46
g8
(lp487
tp488
Rp489
(dp490
g51
g52
(g53
tp491
Rp492
sg56
I00
sg57
I0
sbasg58
I18
sg59
g465
sg62
(dp493
(I0
I0
tp494
g468
sstp495
Rp496
ag0
(g10
g2
(dp497
g12
g0
(g13
g8
(lp498
g0
(g15
g2
(dp499
g17
S'tt-'
p500
sg34
I00
sg20
S'tt-'
p501
sg22
I00
sg23
I1
sg24
S'WTau'
p502
sg26
F-1.0
sg27
S'MTA'
p503
sg31
I1
sg29
S'tt+'
p504
sg32
g362
sg19
I01
sg35
I2
sg36
g500
sg37
I15
stp505
Rp506
ag0
(g15
g2
(dp507
g17
g500
sg19
I01
sg20
g501
sg22
I00
sg23
I1
sg24
g502
sg26
F-1.0
sg27
g503
sg29
g504
sg31
I1
sg32
g362
sg34
I01
sg35
I2
sg36
g500
sg37
I15
stp508
Rp509
ag154
atp510
Rp511
sg42
(lp512
g371
asg23
(lp513
g0
(g46
g8
(lp514
tp515
Rp516
(dp517
g51
g52
(g53
tp518
Rp519
sg56
I00
sg57
I0
sbasg58
I19
sg59
g465
sg62
(dp520
(I0
I0
tp521
g468
sstp522
Rp523
ag0
(g10
g2
(dp524
g12
g0
(g13
g8
(lp525
g0
(g15
g2
(dp526
g17
S'u'
p527
sg34
I00
sg20
S'u'
p528
sg22
I00
sg23
I3
sg24
g73
sg26
F0.6666666666666666
sg27
g73
sg31
I0
sg29
S'u~'
p529
sg32
g362
sg19
I01
sg35
I2
sg36
g527
sg37
I2
stp530
Rp531
ag0
(g15
g2
(dp532
g17
g527
sg19
I01
sg20
g528
sg22
I00
sg23
I3
sg24
g73
sg26
F0.6666666666666666
sg27
g73
sg29
g529
sg31
I0
sg32
g362
sg34
I01
sg35
I2
sg36
g527
sg37
I2
stp533
Rp534
ag154
atp535
Rp536
sg42
(lp537
g371
asg23
(lp538
g0
(g46
g8
(lp539
g374
(I1
I0
tp540
Rp541
atp542
Rp543
(dp544
g51
g52
(g53
tp545
Rp546
sg56
I00
sg57
I0
sbasg58
I20
sg59
(dp547
g61
I1
ssg62
(dp548
(I0
I0
tp549
S'GC_2'
p550
sstp551
Rp552
ag0
(g10
g2
(dp553
g12
g0
(g13
g8
(lp554
g0
(g15
g2
(dp555
g17
S'c'
p556
sg34
I00
sg20
S'c'
p557
sg22
I00
sg23
I3
sg24
g73
sg26
F0.6666666666666666
sg27
S'MC'
p558
sg31
I0
sg29
S'c~'
p559
sg32
g362
sg19
I01
sg35
I2
sg36
g556
sg37
I4
stp560
Rp561
ag0
(g15
g2
(dp562
g17
g556
sg19
I01
sg20
g557
sg22
I00
sg23
I3
sg24
g73
sg26
F0.6666666666666666
sg27
g558
sg29
g559
sg31
I0
sg32
g362
sg34
I01
sg35
I2
sg36
g556
sg37
I4
stp563
Rp564
ag154
atp565
Rp566
sg42
(lp567
g371
asg23
(lp568
g0
(g46
g8
(lp569
g374
(I1
I0
tp570
Rp571
atp572
Rp573
(dp574
g51
g52
(g53
tp575
Rp576
sg56
I00
sg57
I0
sbasg58
I21
sg59
g547
sg62
(dp577
(I0
I0
tp578
g550
sstp579
Rp580
ag0
(g10
g2
(dp581
g12
g0
(g13
g8
(lp582
g0
(g15
g2
(dp583
g17
S't'
p584
sg34
I00
sg20
S't'
p585
sg22
I00
sg23
I3
sg24
S'WT'
p586
sg26
F0.6666666666666666
sg27
S'MT'
p587
sg31
I0
sg29
S't~'
p588
sg32
g362
sg19
I01
sg35
I2
sg36
g584
sg37
I6
stp589
Rp590
ag0
(g15
g2
(dp591
g17
g584
sg19
I01
sg20
g585
sg22
I00
sg23
I3
sg24
g586
sg26
F0.6666666666666666
sg27
g587
sg29
g588
sg31
I0
sg32
g362
sg34
I01
sg35
I2
sg36
g584
sg37
I6
stp592
Rp593
ag154
atp594
Rp595
sg42
(lp596
g371
asg23
(lp597
g0
(g46
g8
(lp598
g374
(I1
I0
tp599
Rp600
atp601
Rp602
(dp603
g51
g52
(g53
tp604
Rp605
sg56
I00
sg57
I0
sbasg58
I22
sg59
g547
sg62
(dp606
(I0
I0
tp607
g550
sstp608
Rp609
ag0
(g10
g2
(dp610
g12
g0
(g13
g8
(lp611
g364
ag367
ag77
atp612
Rp613
sg42
(lp614
g371
asg23
(lp615
g0
(g46
g8
(lp616
g374
(I2
I1
I0
tp617
Rp618
atp619
Rp620
(dp621
g51
g52
(g53
tp622
Rp623
sg56
I00
sg57
I0
sbasg58
I23
sg59
(dp624
g93
I1
ssg62
(dp625
(I0
I0
tp626
S'GC_5'
p627
sstp628
Rp629
ag0
(g10
g2
(dp630
g12
g0
(g13
g8
(lp631
g395
ag398
ag77
atp632
Rp633
sg42
(lp634
g371
asg23
(lp635
g0
(g46
g8
(lp636
g374
(I2
I1
I0
tp637
Rp638
atp639
Rp640
(dp641
g51
g52
(g53
tp642
Rp643
sg56
I00
sg57
I0
sbasg58
I24
sg59
g624
sg62
(dp644
(I0
I0
tp645
g627
sstp646
Rp647
ag0
(g10
g2
(dp648
g12
g0
(g13
g8
(lp649
g423
ag426
ag77
atp650
Rp651
sg42
(lp652
g371
asg23
(lp653
g0
(g46
g8
(lp654
g374
(I2
I1
I0
tp655
Rp656
atp657
Rp658
(dp659
g51
g52
(g53
tp660
Rp661
sg56
I00
sg57
I0
sbasg58
I25
sg59
g624
sg62
(dp662
(I0
I0
tp663
g627
sstp664
Rp665
ag0
(g10
g2
(dp666
g12
g0
(g13
g8
(lp667
g423
ag426
ag39
atp668
Rp669
sg42
(lp670
S'FFS1'
p671
asg23
(lp672
g0
(g46
g8
(lp673
g374
(I1
I0
tp674
Rp675
atp676
Rp677
(dp678
g51
g52
(g53
tp679
Rp680
sg56
I00
sg57
I0
sbasg58
I26
sg59
(dp681
g61
I1
ssg62
(dp682
(I0
I0
tp683
S'GC_33'
p684
sstp685
Rp686
ag0
(g10
g2
(dp687
g12
g0
(g13
g8
(lp688
g364
ag367
ag248
atp689
Rp690
sg42
(lp691
S'FFV2'
p692
aS'FFV3'
p693
asg23
(lp694
g0
(g46
g8
(lp695
g374
(I1
I0
tp696
Rp697
atp698
Rp699
(dp700
g51
g52
(g53
tp701
Rp702
sg56
I00
sg57
I0
sbasg58
I27
sg59
(dp703
g61
I1
ssg62
(dp704
(I0
I1
tp705
S'GC_23'
p706
s(I0
I0
tp707
S'GC_21'
p708
sstp709
Rp710
ag0
(g10
g2
(dp711
g12
g0
(g13
g8
(lp712
g395
ag398
ag248
atp713
Rp714
sg42
(lp715
g692
ag693
asg23
(lp716
g0
(g46
g8
(lp717
g374
(I1
I0
tp718
Rp719
atp720
Rp721
(dp722
g51
g52
(g53
tp723
Rp724
sg56
I00
sg57
I0
sbasg58
I28
sg59
g703
sg62
(dp725
(I0
I1
tp726
g706
s(I0
I0
tp727
g708
sstp728
Rp729
ag0
(g10
g2
(dp730
g12
g0
(g13
g8
(lp731
g423
ag426
ag248
atp732
Rp733
sg42
(lp734
g692
ag693
asg23
(lp735
g0
(g46
g8
(lp736
g374
(I1
I0
tp737
Rp738
atp739
Rp740
(dp741
g51
g52
(g53
tp742
Rp743
sg56
I00
sg57
I0
sbasg58
I29
sg59
g703
sg62
(dp744
(I0
I1
tp745
g706
s(I0
I0
tp746
g708
sstp747
Rp748
ag0
(g10
g2
(dp749
g12
g0
(g13
g8
(lp750
g364
ag534
ag162
atp751
Rp752
sg42
(lp753
g692
asg23
(lp754
g0
(g46
g8
(lp755
g374
(I1
I0
tp756
Rp757
atp758
Rp759
(dp760
g51
g52
(g53
tp761
Rp762
sg56
I00
sg57
I0
sbasg58
I30
sg59
(dp763
g61
I1
ssg62
(dp764
(I0
I0
tp765
S'GC_12'
p766
sstp767
Rp768
ag0
(g10
g2
(dp769
g12
g0
(g13
g8
(lp770
g364
ag564
ag162
atp771
Rp772
sg42
(lp773
g692
asg23
(lp774
g0
(g46
g8
(lp775
g374
(I1
I0
tp776
Rp777
atp778
Rp779
(dp780
g51
g52
(g53
tp781
Rp782
sg56
I00
sg57
I0
sbasg58
I31
sg59
(dp783
g61
I1
ssg62
(dp784
(I0
I0
tp785
S'GC_15'
p786
sstp787
Rp788
ag0
(g10
g2
(dp789
g12
g0
(g13
g8
(lp790
g364
ag593
ag162
atp791
Rp792
sg42
(lp793
g692
asg23
(lp794
g0
(g46
g8
(lp795
g374
(I1
I0
tp796
Rp797
atp798
Rp799
(dp800
g51
g52
(g53
tp801
Rp802
sg56
I00
sg57
I0
sbasg58
I32
sg59
(dp803
g61
I1
ssg62
(dp804
(I0
I0
tp805
S'GC_18'
p806
sstp807
Rp808
ag0
(g10
g2
(dp809
g12
g0
(g13
g8
(lp810
g395
ag534
ag162
atp811
Rp812
sg42
(lp813
g692
asg23
(lp814
g0
(g46
g8
(lp815
g374
(I1
I0
tp816
Rp817
atp818
Rp819
(dp820
g51
g52
(g53
tp821
Rp822
sg56
I00
sg57
I0
sbasg58
I33
sg59
(dp823
g61
I1
ssg62
(dp824
(I0
I0
tp825
S'GC_13'
p826
sstp827
Rp828
ag0
(g10
g2
(dp829
g12
g0
(g13
g8
(lp830
g395
ag564
ag162
atp831
Rp832
sg42
(lp833
g692
asg23
(lp834
g0
(g46
g8
(lp835
g374
(I1
I0
tp836
Rp837
atp838
Rp839
(dp840
g51
g52
(g53
tp841
Rp842
sg56
I00
sg57
I0
sbasg58
I34
sg59
(dp843
g61
I1
ssg62
(dp844
(I0
I0
tp845
S'GC_16'
p846
sstp847
Rp848
ag0
(g10
g2
(dp849
g12
g0
(g13
g8
(lp850
g395
ag593
ag162
atp851
Rp852
sg42
(lp853
g692
asg23
(lp854
g0
(g46
g8
(lp855
g374
(I1
I0
tp856
Rp857
atp858
Rp859
(dp860
g51
g52
(g53
tp861
Rp862
sg56
I00
sg57
I0
sbasg58
I35
sg59
(dp863
g61
I1
ssg62
(dp864
(I0
I0
tp865
S'GC_19'
p866
sstp867
Rp868
ag0
(g10
g2
(dp869
g12
g0
(g13
g8
(lp870
g423
ag534
ag162
atp871
Rp872
sg42
(lp873
g692
asg23
(lp874
g0
(g46
g8
(lp875
g374
(I1
I0
tp876
Rp877
atp878
Rp879
(dp880
g51
g52
(g53
tp881
Rp882
sg56
I00
sg57
I0
sbasg58
I36
sg59
(dp883
g61
I1
ssg62
(dp884
(I0
I0
tp885
S'GC_14'
p886
sstp887
Rp888
ag0
(g10
g2
(dp889
g12
g0
(g13
g8
(lp890
g423
ag564
ag162
atp891
Rp892
sg42
(lp893
g692
asg23
(lp894
g0
(g46
g8
(lp895
g374
(I1
I0
tp896
Rp897
atp898
Rp899
(dp900
g51
g52
(g53
tp901
Rp902
sg56
I00
sg57
I0
sbasg58
I37
sg59
(dp903
g61
I1
ssg62
(dp904
(I0
I0
tp905
S'GC_17'
p906
sstp907
Rp908
ag0
(g10
g2
(dp909
g12
g0
(g13
g8
(lp910
g423
ag593
ag162
atp911
Rp912
sg42
(lp913
g692
asg23
(lp914
g0
(g46
g8
(lp915
g374
(I1
I0
tp916
Rp917
atp918
Rp919
(dp920
g51
g52
(g53
tp921
Rp922
sg56
I00
sg57
I0
sbasg58
I38
sg59
(dp923
g61
I1
ssg62
(dp924
(I0
I0
tp925
S'GC_20'
p926
sstp927
Rp928
ag0
(g10
g2
(dp929
g12
g0
(g13
g8
(lp930
g531
ag367
ag165
atp931
Rp932
sg42
(lp933
g692
asg23
(lp934
g0
(g46
g8
(lp935
g374
(I1
I0
tp936
Rp937
atp938
Rp939
(dp940
g51
g52
(g53
tp941
Rp942
sg56
I00
sg57
I0
sbasg58
I39
sg59
(dp943
g61
I1
ssg62
(dp944
(I0
I0
tp945
S'GC_39'
p946
sstp947
Rp948
ag0
(g10
g2
(dp949
g12
g0
(g13
g8
(lp950
g561
ag367
ag165
atp951
Rp952
sg42
(lp953
g692
asg23
(lp954
g0
(g46
g8
(lp955
g374
(I1
I0
tp956
Rp957
atp958
Rp959
(dp960
g51
g52
(g53
tp961
Rp962
sg56
I00
sg57
I0
sbasg58
I40
sg59
(dp963
g61
I1
ssg62
(dp964
(I0
I0
tp965
S'GC_42'
p966
sstp967
Rp968
ag0
(g10
g2
(dp969
g12
g0
(g13
g8
(lp970
g590
ag367
ag165
atp971
Rp972
sg42
(lp973
g692
asg23
(lp974
g0
(g46
g8
(lp975
g374
(I1
I0
tp976
Rp977
atp978
Rp979
(dp980
g51
g52
(g53
tp981
Rp982
sg56
I00
sg57
I0
sbasg58
I41
sg59
(dp983
g61
I1
ssg62
(dp984
(I0
I0
tp985
S'GC_45'
p986
sstp987
Rp988
ag0
(g10
g2
(dp989
g12
g0
(g13
g8
(lp990
g531
ag398
ag165
atp991
Rp992
sg42
(lp993
g692
asg23
(lp994
g0
(g46
g8
(lp995
g374
(I1
I0
tp996
Rp997
atp998
Rp999
(dp1000
g51
g52
(g53
tp1001
Rp1002
sg56
I00
sg57
I0
sbasg58
I42
sg59
(dp1003
g61
I1
ssg62
(dp1004
(I0
I0
tp1005
S'GC_40'
p1006
sstp1007
Rp1008
ag0
(g10
g2
(dp1009
g12
g0
(g13
g8
(lp1010
g561
ag398
ag165
atp1011
Rp1012
sg42
(lp1013
g692
asg23
(lp1014
g0
(g46
g8
(lp1015
g374
(I1
I0
tp1016
Rp1017
atp1018
Rp1019
(dp1020
g51
g52
(g53
tp1021
Rp1022
sg56
I00
sg57
I0
sbasg58
I43
sg59
(dp1023
g61
I1
ssg62
(dp1024
(I0
I0
tp1025
S'GC_43'
p1026
sstp1027
Rp1028
ag0
(g10
g2
(dp1029
g12
g0
(g13
g8
(lp1030
g590
ag398
ag165
atp1031
Rp1032
sg42
(lp1033
g692
asg23
(lp1034
g0
(g46
g8
(lp1035
g374
(I1
I0
tp1036
Rp1037
atp1038
Rp1039
(dp1040
g51
g52
(g53
tp1041
Rp1042
sg56
I00
sg57
I0
sbasg58
I44
sg59
(dp1043
g61
I1
ssg62
(dp1044
(I0
I0
tp1045
S'GC_46'
p1046
sstp1047
Rp1048
ag0
(g10
g2
(dp1049
g12
g0
(g13
g8
(lp1050
g531
ag426
ag165
atp1051
Rp1052
sg42
(lp1053
g692
asg23
(lp1054
g0
(g46
g8
(lp1055
g374
(I1
I0
tp1056
Rp1057
atp1058
Rp1059
(dp1060
g51
g52
(g53
tp1061
Rp1062
sg56
I00
sg57
I0
sbasg58
I45
sg59
(dp1063
g61
I1
ssg62
(dp1064
(I0
I0
tp1065
S'GC_41'
p1066
sstp1067
Rp1068
ag0
(g10
g2
(dp1069
g12
g0
(g13
g8
(lp1070
g561
ag426
ag165
atp1071
Rp1072
sg42
(lp1073
g692
asg23
(lp1074
g0
(g46
g8
(lp1075
g374
(I1
I0
tp1076
Rp1077
atp1078
Rp1079
(dp1080
g51
g52
(g53
tp1081
Rp1082
sg56
I00
sg57
I0
sbasg58
I46
sg59
(dp1083
g61
I1
ssg62
(dp1084
(I0
I0
tp1085
S'GC_44'
p1086
sstp1087
Rp1088
ag0
(g10
g2
(dp1089
g12
g0
(g13
g8
(lp1090
g590
ag426
ag165
atp1091
Rp1092
sg42
(lp1093
g692
asg23
(lp1094
g0
(g46
g8
(lp1095
g374
(I1
I0
tp1096
Rp1097
atp1098
Rp1099
(dp1100
g51
g52
(g53
tp1101
Rp1102
sg56
I00
sg57
I0
sbasg58
I47
sg59
(dp1103
g61
I1
ssg62
(dp1104
(I0
I0
tp1105
S'GC_47'
p1106
sstp1107
Rp1108
ag0
(g10
g2
(dp1109
g12
g0
(g13
g8
(lp1110
g531
ag534
ag77
atp1111
Rp1112
sg42
(lp1113
g371
asg23
(lp1114
g0
(g46
g8
(lp1115
g374
(I2
I1
I0
tp1116
Rp1117
atp1118
Rp1119
(dp1120
g51
g52
(g53
tp1121
Rp1122
sg56
I00
sg57
I0
sbasg58
I48
sg59
g624
sg62
(dp1123
(I0
I0
tp1124
g627
sstp1125
Rp1126
ag0
(g10
g2
(dp1127
g12
g0
(g13
g8
(lp1128
g561
ag564
ag77
atp1129
Rp1130
sg42
(lp1131
g371
asg23
(lp1132
g0
(g46
g8
(lp1133
g374
(I2
I1
I0
tp1134
Rp1135
atp1136
Rp1137
(dp1138
g51
g52
(g53
tp1139
Rp1140
sg56
I00
sg57
I0
sbasg58
I49
sg59
g624
sg62
(dp1141
(I0
I0
tp1142
g627
sstp1143
Rp1144
ag0
(g10
g2
(dp1145
g12
g0
(g13
g8
(lp1146
g590
ag593
ag77
atp1147
Rp1148
sg42
(lp1149
g371
asg23
(lp1150
g0
(g46
g8
(lp1151
g374
(I2
I1
I0
tp1152
Rp1153
atp1154
Rp1155
(dp1156
g51
g52
(g53
tp1157
Rp1158
sg56
I00
sg57
I0
sbasg58
I50
sg59
g624
sg62
(dp1159
(I0
I0
tp1160
g627
sstp1161
Rp1162
ag0
(g10
g2
(dp1163
g12
g0
(g13
g8
(lp1164
g451
ag454
ag39
atp1165
Rp1166
sg42
(lp1167
g671
asg23
(lp1168
g0
(g46
g8
(lp1169
tp1170
Rp1171
(dp1172
g51
g52
(g53
tp1173
Rp1174
sg56
I00
sg57
I0
sbasg58
I51
sg59
(dp1175
g61
I1
ssg62
(dp1176
(I0
I0
tp1177
S'GC_35'
p1178
sstp1179
Rp1180
ag0
(g10
g2
(dp1181
g12
g0
(g13
g8
(lp1182
g479
ag482
ag39
atp1183
Rp1184
sg42
(lp1185
g671
asg23
(lp1186
g0
(g46
g8
(lp1187
tp1188
Rp1189
(dp1190
g51
g52
(g53
tp1191
Rp1192
sg56
I00
sg57
I0
sbasg58
I52
sg59
(dp1193
g61
I1
ssg62
(dp1194
(I0
I0
tp1195
S'GC_36'
p1196
sstp1197
Rp1198
ag0
(g10
g2
(dp1199
g12
g0
(g13
g8
(lp1200
g506
ag509
ag39
atp1201
Rp1202
sg42
(lp1203
g671
asg23
(lp1204
g0
(g46
g8
(lp1205
tp1206
Rp1207
(dp1208
g51
g52
(g53
tp1209
Rp1210
sg56
I00
sg57
I0
sbasg58
I53
sg59
(dp1211
g61
I1
ssg62
(dp1212
(I0
I0
tp1213
S'GC_38'
p1214
sstp1215
Rp1216
ag0
(g10
g2
(dp1217
g12
g0
(g13
g8
(lp1218
g561
ag564
ag39
atp1219
Rp1220
sg42
(lp1221
g671
asg23
(lp1222
g0
(g46
g8
(lp1223
g374
(I1
I0
tp1224
Rp1225
atp1226
Rp1227
(dp1228
g51
g52
(g53
tp1229
Rp1230
sg56
I00
sg57
I0
sbasg58
I54
sg59
(dp1231
g61
I1
ssg62
(dp1232
(I0
I0
tp1233
S'GC_34'
p1234
sstp1235
Rp1236
ag0
(g10
g2
(dp1237
g12
g0
(g13
g8
(lp1238
g590
ag593
ag39
atp1239
Rp1240
sg42
(lp1241
g671
asg23
(lp1242
g0
(g46
g8
(lp1243
g374
(I1
I0
tp1244
Rp1245
atp1246
Rp1247
(dp1248
g51
g52
(g53
tp1249
Rp1250
sg56
I00
sg57
I0
sbasg58
I55
sg59
(dp1251
g61
I1
ssg62
(dp1252
(I0
I0
tp1253
S'GC_37'
p1254
sstp1255
Rp1256
ag0
(g10
g2
(dp1257
g12
g0
(g13
g8
(lp1258
g451
ag454
ag248
atp1259
Rp1260
sg42
(lp1261
g692
aS'FFV4'
p1262
asg23
(lp1263
g0
(g46
g8
(lp1264
tp1265
Rp1266
(dp1267
g51
g52
(g53
tp1268
Rp1269
sg56
I00
sg57
I0
sbasg58
I56
sg59
(dp1270
g61
I1
ssg62
(dp1271
(I0
I1
tp1272
S'GC_24'
p1273
s(I0
I0
tp1274
g708
sstp1275
Rp1276
ag0
(g10
g2
(dp1277
g12
g0
(g13
g8
(lp1278
g479
ag482
ag248
atp1279
Rp1280
sg42
(lp1281
g692
ag1262
asg23
(lp1282
g0
(g46
g8
(lp1283
tp1284
Rp1285
(dp1286
g51
g52
(g53
tp1287
Rp1288
sg56
I00
sg57
I0
sbasg58
I57
sg59
g1270
sg62
(dp1289
(I0
I1
tp1290
g1273
s(I0
I0
tp1291
g708
sstp1292
Rp1293
ag0
(g10
g2
(dp1294
g12
g0
(g13
g8
(lp1295
g506
ag509
ag248
atp1296
Rp1297
sg42
(lp1298
g692
ag1262
asg23
(lp1299
g0
(g46
g8
(lp1300
tp1301
Rp1302
(dp1303
g51
g52
(g53
tp1304
Rp1305
sg56
I00
sg57
I0
sbasg58
I58
sg59
g1270
sg62
(dp1306
(I0
I1
tp1307
g1273
s(I0
I0
tp1308
g708
sstp1309
Rp1310
ag0
(g10
g2
(dp1311
g12
g0
(g13
g8
(lp1312
g451
ag0
(g15
g2
(dp1313
g17
S've'
p1314
sg19
I01
sg20
S've'
p1315
sg22
I00
sg23
I1
sg24
g73
sg26
F0.0
sg27
g73
sg29
S've~'
p1316
sg31
I1
sg32
g362
sg34
I01
sg35
I2
sg36
g1314
sg37
I12
stp1317
Rp1318
ag162
atp1319
Rp1320
sg42
(lp1321
g692
asg23
(lp1322
g0
(g46
g8
(lp1323
tp1324
Rp1325
(dp1326
g51
g52
(g53
tp1327
Rp1328
sg56
I00
sg57
I0
sbasg58
I59
sg59
(dp1329
g61
I1
ssg62
(dp1330
(I0
I0
tp1331
S'GC_11'
p1332
sstp1333
Rp1334
ag0
(g10
g2
(dp1335
g12
g0
(g13
g8
(lp1336
g479
ag0
(g15
g2
(dp1337
g17
S'vm'
p1338
sg19
I01
sg20
S'vm'
p1339
sg22
I00
sg23
I1
sg24
g73
sg26
F0.0
sg27
g73
sg29
S'vm~'
p1340
sg31
I1
sg32
g362
sg34
I01
sg35
I2
sg36
g1338
sg37
I14
stp1341
Rp1342
ag162
atp1343
Rp1344
sg42
(lp1345
g692
asg23
(lp1346
g0
(g46
g8
(lp1347
tp1348
Rp1349
(dp1350
g51
g52
(g53
tp1351
Rp1352
sg56
I00
sg57
I0
sbasg58
I60
sg59
g1329
sg62
(dp1353
(I0
I0
tp1354
g1332
sstp1355
Rp1356
ag0
(g10
g2
(dp1357
g12
g0
(g13
g8
(lp1358
g506
ag0
(g15
g2
(dp1359
g17
S'vt'
p1360
sg19
I01
sg20
S'vt'
p1361
sg22
I00
sg23
I1
sg24
g73
sg26
F0.0
sg27
g73
sg29
S'vt~'
p1362
sg31
I1
sg32
g362
sg34
I01
sg35
I2
sg36
g1360
sg37
I16
stp1363
Rp1364
ag162
atp1365
Rp1366
sg42
(lp1367
g692
asg23
(lp1368
g0
(g46
g8
(lp1369
tp1370
Rp1371
(dp1372
g51
g52
(g53
tp1373
Rp1374
sg56
I00
sg57
I0
sbasg58
I61
sg59
g1329
sg62
(dp1375
(I0
I0
tp1376
g1332
sstp1377
Rp1378
ag0
(g10
g2
(dp1379
g12
g0
(g13
g8
(lp1380
g0
(g15
g2
(dp1381
g17
g1314
sg34
I00
sg20
g1315
sg22
I00
sg23
I1
sg24
g73
sg26
F0.0
sg27
g73
sg31
I1
sg29
g1316
sg32
g362
sg19
I01
sg35
I2
sg36
g1314
sg37
I12
stp1382
Rp1383
ag454
ag165
atp1384
Rp1385
sg42
(lp1386
g692
asg23
(lp1387
g0
(g46
g8
(lp1388
tp1389
Rp1390
(dp1391
g51
g52
(g53
tp1392
Rp1393
sg56
I00
sg57
I0
sbasg58
I62
sg59
g1329
sg62
(dp1394
(I0
I0
tp1395
g1332
sstp1396
Rp1397
ag0
(g10
g2
(dp1398
g12
g0
(g13
g8
(lp1399
g0
(g15
g2
(dp1400
g17
g1338
sg34
I00
sg20
g1339
sg22
I00
sg23
I1
sg24
g73
sg26
F0.0
sg27
g73
sg31
I1
sg29
g1340
sg32
g362
sg19
I01
sg35
I2
sg36
g1338
sg37
I14
stp1401
Rp1402
ag482
ag165
atp1403
Rp1404
sg42
(lp1405
g692
asg23
(lp1406
g0
(g46
g8
(lp1407
tp1408
Rp1409
(dp1410
g51
g52
(g53
tp1411
Rp1412
sg56
I00
sg57
I0
sbasg58
I63
sg59
g1329
sg62
(dp1413
(I0
I0
tp1414
g1332
sstp1415
Rp1416
ag0
(g10
g2
(dp1417
g12
g0
(g13
g8
(lp1418
g0
(g15
g2
(dp1419
g17
g1360
sg34
I00
sg20
g1361
sg22
I00
sg23
I1
sg24
g73
sg26
F0.0
sg27
g73
sg31
I1
sg29
g1362
sg32
g362
sg19
I01
sg35
I2
sg36
g1360
sg37
I16
stp1420
Rp1421
ag509
ag165
atp1422
Rp1423
sg42
(lp1424
g692
asg23
(lp1425
g0
(g46
g8
(lp1426
tp1427
Rp1428
(dp1429
g51
g52
(g53
tp1430
Rp1431
sg56
I00
sg57
I0
sbasg58
I64
sg59
g1329
sg62
(dp1432
(I0
I0
tp1433
g1332
sstp1434
Rp1435
ag0
(g10
g2
(dp1436
g12
g0
(g13
g8
(lp1437
g531
ag534
ag248
atp1438
Rp1439
sg42
(lp1440
g692
aS'FFV5'
p1441
asg23
(lp1442
g0
(g46
g8
(lp1443
g374
(I1
I0
tp1444
Rp1445
atp1446
Rp1447
(dp1448
g51
g52
(g53
tp1449
Rp1450
sg56
I00
sg57
I0
sbasg58
I65
sg59
g703
sg62
(dp1451
(I0
I1
tp1452
g706
s(I0
I0
tp1453
S'GC_22'
p1454
sstp1455
Rp1456
ag0
(g10
g2
(dp1457
g12
g0
(g13
g8
(lp1458
g561
ag564
ag248
atp1459
Rp1460
sg42
(lp1461
g692
ag1441
asg23
(lp1462
g0
(g46
g8
(lp1463
g374
(I1
I0
tp1464
Rp1465
atp1466
Rp1467
(dp1468
g51
g52
(g53
tp1469
Rp1470
sg56
I00
sg57
I0
sbasg58
I66
sg59
g703
sg62
(dp1471
(I0
I1
tp1472
g706
s(I0
I0
tp1473
g1454
sstp1474
Rp1475
ag0
(g10
g2
(dp1476
g12
g0
(g13
g8
(lp1477
g590
ag593
ag248
atp1478
Rp1479
sg42
(lp1480
g692
ag1441
asg23
(lp1481
g0
(g46
g8
(lp1482
g374
(I1
I0
tp1483
Rp1484
atp1485
Rp1486
(dp1487
g51
g52
(g53
tp1488
Rp1489
sg56
I00
sg57
I0
sbasg58
I67
sg59
g703
sg62
(dp1490
(I0
I1
tp1491
g706
s(I0
I0
tp1492
g1454
sstp1493
Rp1494
ag0
(g10
g2
(dp1495
g12
g0
(g13
g8
(lp1496
g1383
ag1318
ag248
atp1497
Rp1498
sg42
(lp1499
g692
asg23
(lp1500
g0
(g46
g8
(lp1501
tp1502
Rp1503
(dp1504
g51
g52
(g53
tp1505
Rp1506
sg56
I00
sg57
I0
sbasg58
I68
sg59
(dp1507
g61
I1
ssg62
(dp1508
(I0
I0
tp1509
S'GC_28'
p1510
sstp1511
Rp1512
ag0
(g10
g2
(dp1513
g12
g0
(g13
g8
(lp1514
g1402
ag1342
ag248
atp1515
Rp1516
sg42
(lp1517
g692
asg23
(lp1518
g0
(g46
g8
(lp1519
tp1520
Rp1521
(dp1522
g51
g52
(g53
tp1523
Rp1524
sg56
I00
sg57
I0
sbasg58
I69
sg59
g1507
sg62
(dp1525
(I0
I0
tp1526
g1510
sstp1527
Rp1528
ag0
(g10
g2
(dp1529
g12
g0
(g13
g8
(lp1530
g1421
ag1364
ag248
atp1531
Rp1532
sg42
(lp1533
g692
asg23
(lp1534
g0
(g46
g8
(lp1535
tp1536
Rp1537
(dp1538
g51
g52
(g53
tp1539
Rp1540
sg56
I00
sg57
I0
sbasg58
I70
sg59
g1507
sg62
(dp1541
(I0
I0
tp1542
g1510
sstp1543
Rp1544
atp1545
Rp1546
sS'coupling_orders'
p1547
NsS'conserved_charge'
p1548
c__builtin__
set
p1549
((lp1550
g31
ag26
atp1551
Rp1552
sS'particle_dict'
p1553
(dp1554
I1
g367
sI2
g534
sI3
g398
sI4
g564
sI5
g426
sI6
g593
sI11
g454
sI12
g1318
sI13
g482
sI14
g1342
sI15
g509
sI16
g1364
sI21
g77
sI22
g154
sI23
g248
sI24
g165
sI25
g39
sI-11
g451
sI-24
g162
sI-16
g1421
sI-15
g506
sI-14
g1402
sI-13
g479
sI-12
g1383
sI-2
g531
sI-6
g590
sI-5
g423
sI-4
g561
sI-3
g395
sI-1
g364
ssg42
NsS'got_majoranas'
p1555
NsS'order_hierarchy'
p1556
(dp1557
g61
I2
sg93
I1
ssS'functions'
p1558
(lp1559
g0
(csm.object_library
Function
p1560
c__builtin__
object
p1561
Ntp1562
Rp1563
(dp1564
S'expr'
p1565
S'z.conjugate()'
p1566
sg20
S'complexconjugate'
p1567
sS'arguments'
p1568
(S'z'
p1569
tp1570
sbag0
(g1560
g1561
Ntp1571
Rp1572
(dp1573
g1565
S'z.real'
p1574
sg20
S're'
p1575
sg1568
(g1569
tp1576
sbag0
(g1560
g1561
Ntp1577
Rp1578
(dp1579
g1565
S'z.imag'
p1580
sg20
S'im'
p1581
sg1568
(g1569
tp1582
sbag0
(g1560
g1561
Ntp1583
Rp1584
(dp1585
g1565
S'1./cmath.cos(z)'
p1586
sg20
S'sec'
p1587
sg1568
(g1569
tp1588
sbag0
(g1560
g1561
Ntp1589
Rp1590
(dp1591
g1565
S'cmath.acos(1./z)'
p1592
sg20
S'asec'
p1593
sg1568
(g1569
tp1594
sbag0
(g1560
g1561
Ntp1595
Rp1596
(dp1597
g1565
S'1./cmath.sin(z)'
p1598
sg20
S'csc'
p1599
sg1568
(g1569
tp1600
sbag0
(g1560
g1561
Ntp1601
Rp1602
(dp1603
g1565
S'cmath.asin(1./z)'
p1604
sg20
S'acsc'
p1605
sg1568
(g1569
tp1606
sbasS'interaction_dict'
p1607
(dp1608
sg20
S'sm'
p1609
sS'parameters'
p1610
(dp1611
(S'aEWM1'
p1612
tp1613
(lp1614
g0
(cmadgraph.core.base_objects
ModelVariable
p1615
g1561
Ntp1616
Rp1617
(dp1618
g1565
S'1/aEWM1'
p1619
sS'type'
p1620
S'real'
p1621
sg20
S'aEW'
p1622
sS'value'
p1623
NsS'depend'
p1624
g1613
sbag0
(g1615
g1561
Ntp1625
Rp1626
(dp1627
g1565
S'cmath.sqrt(MZ__exp__2/2. + cmath.sqrt(MZ__exp__4/4. - (aEW*cmath.pi*MZ__exp__2)/(Gf*sqrt__2)))'
p1628
sg1620
g1621
sg20
g159
sg1623
Nsg1624
(g1612
tp1629
sbag0
(g1615
g1561
Ntp1630
Rp1631
(dp1632
g1565
S' cmath.sqrt(aEW) '
p1633
sg1620
g1621
sg20
S'sqrt__aEW'
p1634
sg1623
Nsg1624
(g1612
tp1635
sbag0
(g1615
g1561
Ntp1636
Rp1637
(dp1638
g1565
S'2*sqrt__aEW*cmath.sqrt(cmath.pi)'
p1639
sg1620
g1621
sg20
S'ee'
p1640
sg1623
Nsg1624
(g1612
tp1641
sbag0
(g1615
g1561
Ntp1642
Rp1643
(dp1644
g1565
S'MW**2'
p1645
sg1620
g1621
sg20
S'MW__exp__2'
p1646
sg1623
Nsg1624
(g1612
tp1647
sbag0
(g1615
g1561
Ntp1648
Rp1649
(dp1650
g1565
S'1 - MW__exp__2/MZ__exp__2'
p1651
sg1620
g1621
sg20
S'sw2'
p1652
sg1623
Nsg1624
(g1612
tp1653
sbag0
(g1615
g1561
Ntp1654
Rp1655
(dp1656
g1565
S'cmath.sqrt(1 - sw2)'
p1657
sg1620
g1621
sg20
S'cw'
p1658
sg1623
Nsg1624
(g1612
tp1659
sbag0
(g1615
g1561
Ntp1660
Rp1661
(dp1662
g1565
S' cmath.sqrt(sw2) '
p1663
sg1620
g1621
sg20
S'sqrt__sw2'
p1664
sg1623
Nsg1624
(g1612
tp1665
sbag0
(g1615
g1561
Ntp1666
Rp1667
(dp1668
g1565
g1664
sg1620
g1621
sg20
S'sw'
p1669
sg1623
Nsg1624
(g1612
tp1670
sbag0
(g1615
g1561
Ntp1671
Rp1672
(dp1673
g1565
S'ee/cw'
p1674
sg1620
g1621
sg20
S'g1'
p1675
sg1623
Nsg1624
(g1612
tp1676
sbag0
(g1615
g1561
Ntp1677
Rp1678
(dp1679
g1565
S'ee/sw'
p1680
sg1620
g1621
sg20
S'gw'
p1681
sg1623
Nsg1624
(g1612
tp1682
sbag0
(g1615
g1561
Ntp1683
Rp1684
(dp1685
g1565
S'(2*MW*sw)/ee'
p1686
sg1620
g1621
sg20
S'v'
p1687
sg1623
Nsg1624
(g1612
tp1688
sbag0
(g1615
g1561
Ntp1689
Rp1690
(dp1691
g1565
S'v**2'
p1692
sg1620
g1621
sg20
S'v__exp__2'
p1693
sg1623
Nsg1624
(g1612
tp1694
sbag0
(g1615
g1561
Ntp1695
Rp1696
(dp1697
g1565
S'MH__exp__2/(2.*v__exp__2)'
p1698
sg1620
g1621
sg20
S'lam'
p1699
sg1623
Nsg1624
(g1612
tp1700
sbag0
(g1615
g1561
Ntp1701
Rp1702
(dp1703
g1565
S'(ymb*sqrt__2)/v'
p1704
sg1620
g1621
sg20
S'yb'
p1705
sg1623
Nsg1624
(g1612
tp1706
sbag0
(g1615
g1561
Ntp1707
Rp1708
(dp1709
g1565
S'(ymc*sqrt__2)/v'
p1710
sg1620
g1621
sg20
S'yc'
p1711
sg1623
Nsg1624
(g1612
tp1712
sbag0
(g1615
g1561
Ntp1713
Rp1714
(dp1715
g1565
S'(yme*sqrt__2)/v'
p1716
sg1620
g1621
sg20
S'ye'
p1717
sg1623
Nsg1624
(g1612
tp1718
sbag0
(g1615
g1561
Ntp1719
Rp1720
(dp1721
g1565
S'(ymm*sqrt__2)/v'
p1722
sg1620
g1621
sg20
S'ym'
p1723
sg1623
Nsg1624
(g1612
tp1724
sbag0
(g1615
g1561
Ntp1725
Rp1726
(dp1727
g1565
S'(ymt*sqrt__2)/v'
p1728
sg1620
g1621
sg20
S'yt'
p1729
sg1623
Nsg1624
(g1612
tp1730
sbag0
(g1615
g1561
Ntp1731
Rp1732
(dp1733
g1565
S'(ymtau*sqrt__2)/v'
p1734
sg1620
g1621
sg20
S'ytau'
p1735
sg1623
Nsg1624
(g1612
tp1736
sbag0
(g1615
g1561
Ntp1737
Rp1738
(dp1739
g1565
S'cmath.sqrt(lam*v__exp__2)'
p1740
sg1620
g1621
sg20
S'muH'
p1741
sg1623
Nsg1624
(g1612
tp1742
sbag0
(g1615
g1561
Ntp1743
Rp1744
(dp1745
g1565
S'gw**2'
p1746
sg1620
g1621
sg20
S'gw__exp__2'
p1747
sg1623
Nsg1624
(g1612
tp1748
sbag0
(g1615
g1561
Ntp1749
Rp1750
(dp1751
g1565
S'cw**2'
p1752
sg1620
g1621
sg20
S'cw__exp__2'
p1753
sg1623
Nsg1624
(g1612
tp1754
sbag0
(g1615
g1561
Ntp1755
Rp1756
(dp1757
g1565
S'ee**2'
p1758
sg1620
g1621
sg20
S'ee__exp__2'
p1759
sg1623
Nsg1624
(g1612
tp1760
sbag0
(g1615
g1561
Ntp1761
Rp1762
(dp1763
g1565
S'sw**2'
p1764
sg1620
g1621
sg20
S'sw__exp__2'
p1765
sg1623
Nsg1624
(g1612
tp1766
sbas(S'external'
p1767
tp1768
(lp1769
g0
(cmadgraph.core.base_objects
ParamCardVariable
p1770
g1561
Ntp1771
Rp1772
(dp1773
S'lhablock'
p1774
S'SMINPUTS'
p1775
sg20
S'aEWM1'
p1776
sg1623
F132.50698
sS'lhacode'
p1777
(lp1778
I1
asbag0
(g1770
g1561
Ntp1779
Rp1780
(dp1781
g1774
g1775
sg20
S'Gf'
p1782
sg1623
F1.16639e-05
sg1777
(lp1783
I2
asbag0
(g1770
g1561
Ntp1784
Rp1785
(dp1786
g1774
g1775
sg20
S'aS'
p1787
sg1623
F0.118
sg1777
(lp1788
I3
asbag0
(g1770
g1561
Ntp1789
Rp1790
(dp1791
g1774
S'Wolfenstein'
p1792
sg20
S'lamWS'
p1793
sg1623
F0.2253
sg1777
(lp1794
I1
asbag0
(g1770
g1561
Ntp1795
Rp1796
(dp1797
g1774
g1792
sg20
S'AWS'
p1798
sg1623
F0.808
sg1777
(lp1799
I2
asbag0
(g1770
g1561
Ntp1800
Rp1801
(dp1802
g1774
g1792
sg20
S'rhoWS'
p1803
sg1623
F0.132
sg1777
(lp1804
I3
asbag0
(g1770
g1561
Ntp1805
Rp1806
(dp1807
g1774
g1792
sg20
S'etaWS'
p1808
sg1623
F0.341
sg1777
(lp1809
I4
asbag0
(g1770
g1561
Ntp1810
Rp1811
(dp1812
g1774
S'YUKAWA'
p1813
sg20
S'ymc'
p1814
sg1623
F1.27
sg1777
(lp1815
I4
asbag0
(g1770
g1561
Ntp1816
Rp1817
(dp1818
g1774
g1813
sg20
S'ymb'
p1819
sg1623
F4.2
sg1777
(lp1820
I5
asbag0
(g1770
g1561
Ntp1821
Rp1822
(dp1823
g1774
g1813
sg20
S'ymt'
p1824
sg1623
F164.5
sg1777
(lp1825
I6
asbag0
(g1770
g1561
Ntp1826
Rp1827
(dp1828
g1774
g1813
sg20
S'yme'
p1829
sg1623
F0.0005110000000000001
sg1777
(lp1830
I11
asbag0
(g1770
g1561
Ntp1831
Rp1832
(dp1833
g1774
g1813
sg20
S'ymm'
p1834
sg1623
F0.10566
sg1777
(lp1835
I13
asbag0
(g1770
g1561
Ntp1836
Rp1837
(dp1838
g1774
g1813
sg20
S'ymtau'
p1839
sg1623
F1.777
sg1777
(lp1840
I15
asbag0
(g1770
g1561
Ntp1841
Rp1842
(dp1843
g1774
S'MASS'
p1844
sg20
g558
sg1623
F1.42
sg1777
(lp1845
I4
asbag0
(g1770
g1561
Ntp1846
Rp1847
(dp1848
g1774
g1844
sg20
g587
sg1623
F172.0
sg1777
(lp1849
I6
asbag0
(g1770
g1561
Ntp1850
Rp1851
(dp1852
g1774
g1844
sg20
g420
sg1623
F4.7
sg1777
(lp1853
I5
asbag0
(g1770
g1561
Ntp1854
Rp1855
(dp1856
g1774
g1844
sg20
g245
sg1623
F91.188
sg1777
(lp1857
I23
asbag0
(g1770
g1561
Ntp1858
Rp1859
(dp1860
g1774
g1844
sg20
g28
sg1623
F120.0
sg1777
(lp1861
I25
asbag0
(g1770
g1561
Ntp1862
Rp1863
(dp1864
g1774
g1844
sg20
g448
sg1623
F0.0005110000000000001
sg1777
(lp1865
I11
asbag0
(g1770
g1561
Ntp1866
Rp1867
(dp1868
g1774
g1844
sg20
g476
sg1623
F0.10566
sg1777
(lp1869
I13
asbag0
(g1770
g1561
Ntp1870
Rp1871
(dp1872
g1774
g1844
sg20
g503
sg1623
F1.777
sg1777
(lp1873
I15
asbag0
(g1770
g1561
Ntp1874
Rp1875
(dp1876
g1774
S'DECAY'
p1877
sg20
g586
sg1623
F1.50833649
sg1777
(lp1878
I6
asbag0
(g1770
g1561
Ntp1879
Rp1880
(dp1881
g1774
g1877
sg20
g244
sg1623
F2.44140351
sg1777
(lp1882
I23
asbag0
(g1770
g1561
Ntp1883
Rp1884
(dp1885
g1774
g1877
sg20
g158
sg1623
F2.04759951
sg1777
(lp1886
I24
asbag0
(g1770
g1561
Ntp1887
Rp1888
(dp1889
g1774
g1877
sg20
g25
sg1623
F0.00575308848
sg1777
(lp1890
I25
asbag0
(g1770
g1561
Ntp1891
Rp1892
(dp1893
g1774
g1877
sg20
g502
sg1623
F2.27e-12
sg1777
(lp1894
I15
asbas(t(lp1895
g0
(g1615
g1561
Ntp1896
Rp1897
(dp1898
g1565
S'0.0'
p1899
sg1620
g1621
sg20
g73
sg1623
Nsg1624
(tsbag0
(g1615
g1561
Ntp1900
Rp1901
(dp1902
g1565
S'lamWS**2'
p1903
sg1620
g1621
sg20
S'lamWS__exp__2'
p1904
sg1623
Nsg1624
(tsbag0
(g1615
g1561
Ntp1905
Rp1906
(dp1907
g1565
S'1 - lamWS__exp__2/2.'
p1908
sg1620
S'complex'
p1909
sg20
S'CKM11'
p1910
sg1623
Nsg1624
(tsbag0
(g1615
g1561
Ntp1911
Rp1912
(dp1913
g1565
g1793
sg1620
g1909
sg20
S'CKM12'
p1914
sg1623
Nsg1624
(tsbag0
(g1615
g1561
Ntp1915
Rp1916
(dp1917
g1565
S'complex(0,1)'
p1918
sg1620
g1909
sg20
S'complexi'
p1919
sg1623
Nsg1624
(tsbag0
(g1615
g1561
Ntp1920
Rp1921
(dp1922
g1565
S'lamWS**3'
p1923
sg1620
g1621
sg20
S'lamWS__exp__3'
p1924
sg1623
Nsg1624
(tsbag0
(g1615
g1561
Ntp1925
Rp1926
(dp1927
g1565
S'AWS*lamWS__exp__3*(-(etaWS*complexi) + rhoWS)'
p1928
sg1620
g1909
sg20
S'CKM13'
p1929
sg1623
Nsg1624
(tsbag0
(g1615
g1561
Ntp1930
Rp1931
(dp1932
g1565
S'-lamWS'
p1933
sg1620
g1909
sg20
S'CKM21'
p1934
sg1623
Nsg1624
(tsbag0
(g1615
g1561
Ntp1935
Rp1936
(dp1937
g1565
S'1 - lamWS__exp__2/2.'
p1938
sg1620
g1909
sg20
S'CKM22'
p1939
sg1623
Nsg1624
(tsbag0
(g1615
g1561
Ntp1940
Rp1941
(dp1942
g1565
S'AWS*lamWS__exp__2'
p1943
sg1620
g1909
sg20
S'CKM23'
p1944
sg1623
Nsg1624
(tsbag0
(g1615
g1561
Ntp1945
Rp1946
(dp1947
g1565
S'AWS*lamWS__exp__3*(1 - etaWS*complexi - rhoWS)'
p1948
sg1620
g1909
sg20
S'CKM31'
p1949
sg1623
Nsg1624
(tsbag0
(g1615
g1561
Ntp1950
Rp1951
(dp1952
g1565
S'-(AWS*lamWS__exp__2)'
p1953
sg1620
g1909
sg20
S'CKM32'
p1954
sg1623
Nsg1624
(tsbag0
(g1615
g1561
Ntp1955
Rp1956
(dp1957
g1565
g53
sg1620
g1909
sg20
S'CKM33'
p1958
sg1623
Nsg1624
(tsbag0
(g1615
g1561
Ntp1959
Rp1960
(dp1961
g1565
S'MZ**2'
p1962
sg1620
g1621
sg20
S'MZ__exp__2'
p1963
sg1623
Nsg1624
(tsbag0
(g1615
g1561
Ntp1964
Rp1965
(dp1966
g1565
S'MZ**4'
p1967
sg1620
g1621
sg20
S'MZ__exp__4'
p1968
sg1623
Nsg1624
(tsbag0
(g1615
g1561
Ntp1969
Rp1970
(dp1971
g1565
S' cmath.sqrt(2) '
p1972
sg1620
g1621
sg20
S'sqrt__2'
p1973
sg1623
Nsg1624
(tsbag0
(g1615
g1561
Ntp1974
Rp1975
(dp1976
g1565
S'MH**2'
p1977
sg1620
g1621
sg20
S'MH__exp__2'
p1978
sg1623
Nsg1624
(tsbag0
(g1615
g1561
Ntp1979
Rp1980
(dp1981
g1565
S' complexconjugate(CKM11) '
p1982
sg1620
g1909
sg20
S'conjg__CKM11'
p1983
sg1623
Nsg1624
(tsbag0
(g1615
g1561
Ntp1984
Rp1985
(dp1986
g1565
S' complexconjugate(CKM12) '
p1987
sg1620
g1909
sg20
S'conjg__CKM12'
p1988
sg1623
Nsg1624
(tsbag0
(g1615
g1561
Ntp1989
Rp1990
(dp1991
g1565
S' complexconjugate(CKM13) '
p1992
sg1620
g1909
sg20
S'conjg__CKM13'
p1993
sg1623
Nsg1624
(tsbag0
(g1615
g1561
Ntp1994
Rp1995
(dp1996
g1565
S' complexconjugate(CKM21) '
p1997
sg1620
g1909
sg20
S'conjg__CKM21'
p1998
sg1623
Nsg1624
(tsbag0
(g1615
g1561
Ntp1999
Rp2000
(dp2001
g1565
S' complexconjugate(CKM22) '
p2002
sg1620
g1909
sg20
S'conjg__CKM22'
p2003
sg1623
Nsg1624
(tsbag0
(g1615
g1561
Ntp2004
Rp2005
(dp2006
g1565
S' complexconjugate(CKM23) '
p2007
sg1620
g1909
sg20
S'conjg__CKM23'
p2008
sg1623
Nsg1624
(tsbag0
(g1615
g1561
Ntp2009
Rp2010
(dp2011
g1565
S' complexconjugate(CKM31) '
p2012
sg1620
g1909
sg20
S'conjg__CKM31'
p2013
sg1623
Nsg1624
(tsbag0
(g1615
g1561
Ntp2014
Rp2015
(dp2016
g1565
S' complexconjugate(CKM32) '
p2017
sg1620
g1909
sg20
S'conjg__CKM32'
p2018
sg1623
Nsg1624
(tsbag0
(g1615
g1561
Ntp2019
Rp2020
(dp2021
g1565
S' complexconjugate(CKM33) '
p2022
sg1620
g1909
sg20
S'conjg__CKM33'
p2023
sg1623
Nsg1624
(tsbas(S'aS'
p2024
tp2025
(lp2026
g0
(g1615
g1561
Ntp2027
Rp2028
(dp2029
g1565
S' cmath.sqrt(aS) '
p2030
sg1620
g1621
sg20
S'sqrt__aS'
p2031
sg1623
Nsg1624
g2025
sbag0
(g1615
g1561
Ntp2032
Rp2033
(dp2034
g1565
S'2*sqrt__aS*cmath.sqrt(cmath.pi)'
p2035
sg1620
g1621
sg20
g71
sg1623
Nsg1624
(g2024
tp2036
sbag0
(g1615
g1561
Ntp2037
Rp2038
(dp2039
g1565
S'G**2'
p2040
sg1620
g1621
sg20
S'G__exp__2'
p2041
sg1623
Nsg1624
(g2024
tp2042
sbassS'ref_dict_to1'
p2043
(dp2044
sS'expansion_order'
p2045
(dp2046
g61
I-1
sg93
I-1
ssS'version_tag'
p2047
S"/home/sebi/tp1/blatt_2/MadGraph5_v1_3_20/models/sm{'date': '2011-10-09', 'version': '1.3.20'}"
p2048
sg12
g0
(g13
g8
(lp2049
g1318
ag1342
ag1364
ag534
ag564
ag593
ag367
ag398
ag426
ag154
ag248
ag165
ag77
ag39
ag454
ag482
ag509
atp2050
Rp2051
sg62
(dp2052
(g1612
tp2053
(lp2054
g0
(g1615
g1561
Ntp2055
Rp2056
(dp2057
g1565
S'-(ee*complexi)/3.'
p2058
sg1620
g1909
sg20
g385
sg1623
Nsg1624
g2053
sbag0
(g1615
g1561
Ntp2059
Rp2060
(dp2061
g1565
S'(2*ee*complexi)/3.'
p2062
sg1620
g1909
sg20
g550
sg1623
Nsg1624
(g1612
tp2063
sbag0
(g1615
g1561
Ntp2064
Rp2065
(dp2066
g1565
S'-(ee*complexi)'
p2067
sg1620
g1909
sg20
g468
sg1623
Nsg1624
(g1612
tp2068
sbag0
(g1615
g1561
Ntp2069
Rp2070
(dp2071
g1565
S'cw*complexi*gw'
p2072
sg1620
g1909
sg20
g262
sg1623
Nsg1624
(g1612
tp2073
sbag0
(g1615
g1561
Ntp2074
Rp2075
(dp2076
g1565
S'-(complexi*gw__exp__2)'
p2077
sg1620
g1909
sg20
g280
sg1623
Nsg1624
(g1612
tp2078
sbag0
(g1615
g1561
Ntp2079
Rp2080
(dp2081
g1565
S'cw__exp__2*complexi*gw__exp__2'
p2082
sg1620
g1909
sg20
g353
sg1623
Nsg1624
(g1612
tp2083
sbag0
(g1615
g1561
Ntp2084
Rp2085
(dp2086
g1565
S'(ee__exp__2*complexi)/(2.*sw__exp__2)'
p2087
sg1620
g1909
sg20
g198
sg1623
Nsg1624
(g1612
tp2088
sbag0
(g1615
g1561
Ntp2089
Rp2090
(dp2091
g1565
S'(ee*complexi)/(sw*sqrt__2)'
p2092
sg1620
g1909
sg20
g1332
sg1623
Nsg1624
(g1612
tp2093
sbag0
(g1615
g1561
Ntp2094
Rp2095
(dp2096
g1565
S'(CKM11*ee*complexi)/(sw*sqrt__2)'
p2097
sg1620
g1909
sg20
g766
sg1623
Nsg1624
(g1612
tp2098
sbag0
(g1615
g1561
Ntp2099
Rp2100
(dp2101
g1565
S'(CKM12*ee*complexi)/(sw*sqrt__2)'
p2102
sg1620
g1909
sg20
g826
sg1623
Nsg1624
(g1612
tp2103
sbag0
(g1615
g1561
Ntp2104
Rp2105
(dp2106
g1565
S'(CKM13*ee*complexi)/(sw*sqrt__2)'
p2107
sg1620
g1909
sg20
g886
sg1623
Nsg1624
(g1612
tp2108
sbag0
(g1615
g1561
Ntp2109
Rp2110
(dp2111
g1565
S'(CKM21*ee*complexi)/(sw*sqrt__2)'
p2112
sg1620
g1909
sg20
g786
sg1623
Nsg1624
(g1612
tp2113
sbag0
(g1615
g1561
Ntp2114
Rp2115
(dp2116
g1565
S'(CKM22*ee*complexi)/(sw*sqrt__2)'
p2117
sg1620
g1909
sg20
g846
sg1623
Nsg1624
(g1612
tp2118
sbag0
(g1615
g1561
Ntp2119
Rp2120
(dp2121
g1565
S'(CKM23*ee*complexi)/(sw*sqrt__2)'
p2122
sg1620
g1909
sg20
g906
sg1623
Nsg1624
(g1612
tp2123
sbag0
(g1615
g1561
Ntp2124
Rp2125
(dp2126
g1565
S'(CKM31*ee*complexi)/(sw*sqrt__2)'
p2127
sg1620
g1909
sg20
g806
sg1623
Nsg1624
(g1612
tp2128
sbag0
(g1615
g1561
Ntp2129
Rp2130
(dp2131
g1565
S'(CKM32*ee*complexi)/(sw*sqrt__2)'
p2132
sg1620
g1909
sg20
g866
sg1623
Nsg1624
(g1612
tp2133
sbag0
(g1615
g1561
Ntp2134
Rp2135
(dp2136
g1565
S'(CKM33*ee*complexi)/(sw*sqrt__2)'
p2137
sg1620
g1909
sg20
g926
sg1623
Nsg1624
(g1612
tp2138
sbag0
(g1615
g1561
Ntp2139
Rp2140
(dp2141
g1565
S'-(cw*ee*complexi)/(2.*sw)'
p2142
sg1620
g1909
sg20
g708
sg1623
Nsg1624
(g1612
tp2143
sbag0
(g1615
g1561
Ntp2144
Rp2145
(dp2146
g1565
S'(cw*ee*complexi)/(2.*sw)'
p2147
sg1620
g1909
sg20
g1454
sg1623
Nsg1624
(g1612
tp2148
sbag0
(g1615
g1561
Ntp2149
Rp2150
(dp2151
g1565
S'-(ee*complexi*sw)/(6.*cw)'
p2152
sg1620
g1909
sg20
g706
sg1623
Nsg1624
(g1612
tp2153
sbag0
(g1615
g1561
Ntp2154
Rp2155
(dp2156
g1565
S'(ee*complexi*sw)/(2.*cw)'
p2157
sg1620
g1909
sg20
g1273
sg1623
Nsg1624
(g1612
tp2158
sbag0
(g1615
g1561
Ntp2159
Rp2160
(dp2161
g1565
S'complexi*gw*sw'
p2162
sg1620
g1909
sg20
g179
sg1623
Nsg1624
(g1612
tp2163
sbag0
(g1615
g1561
Ntp2164
Rp2165
(dp2166
g1565
S'-2*cw*complexi*gw__exp__2*sw'
p2167
sg1620
g1909
sg20
g299
sg1623
Nsg1624
(g1612
tp2168
sbag0
(g1615
g1561
Ntp2169
Rp2170
(dp2171
g1565
S'complexi*gw__exp__2*sw__exp__2'
p2172
sg1620
g1909
sg20
g236
sg1623
Nsg1624
(g1612
tp2173
sbag0
(g1615
g1561
Ntp2174
Rp2175
(dp2176
g1565
S'(cw*ee*complexi)/(2.*sw) + (ee*complexi*sw)/(2.*cw)'
p2177
sg1620
g1909
sg20
g1510
sg1623
Nsg1624
(g1612
tp2178
sbag0
(g1615
g1561
Ntp2179
Rp2180
(dp2181
g1565
S'ee__exp__2*complexi + (cw__exp__2*ee__exp__2*complexi)/(2.*sw__exp__2) + (ee__exp__2*complexi*sw__exp__2)/(2.*cw__exp__2)'
p2182
sg1620
g1909
sg20
g317
sg1623
Nsg1624
(g1612
tp2183
sbag0
(g1615
g1561
Ntp2184
Rp2185
(dp2186
g1565
S'-6*complexi*lam*v'
p2187
sg1620
g1909
sg20
g65
sg1623
Nsg1624
(g1612
tp2188
sbag0
(g1615
g1561
Ntp2189
Rp2190
(dp2191
g1565
S'(ee__exp__2*complexi*v)/(2.*sw__exp__2)'
p2192
sg1620
g1909
sg20
g217
sg1623
Nsg1624
(g1612
tp2193
sbag0
(g1615
g1561
Ntp2194
Rp2195
(dp2196
g1565
S'ee__exp__2*complexi*v + (cw__exp__2*ee__exp__2*complexi*v)/(2.*sw__exp__2) + (ee__exp__2*complexi*sw__exp__2*v)/(2.*cw__exp__2)'
p2197
sg1620
g1909
sg20
g335
sg1623
Nsg1624
(g1612
tp2198
sbag0
(g1615
g1561
Ntp2199
Rp2200
(dp2201
g1565
S'-((complexi*yb)/sqrt__2)'
p2202
sg1620
g1909
sg20
g684
sg1623
Nsg1624
(g1612
tp2203
sbag0
(g1615
g1561
Ntp2204
Rp2205
(dp2206
g1565
S'-((complexi*yc)/sqrt__2)'
p2207
sg1620
g1909
sg20
g1234
sg1623
Nsg1624
(g1612
tp2208
sbag0
(g1615
g1561
Ntp2209
Rp2210
(dp2211
g1565
S'-((complexi*ye)/sqrt__2)'
p2212
sg1620
g1909
sg20
g1178
sg1623
Nsg1624
(g1612
tp2213
sbag0
(g1615
g1561
Ntp2214
Rp2215
(dp2216
g1565
S'-((complexi*ym)/sqrt__2)'
p2217
sg1620
g1909
sg20
g1196
sg1623
Nsg1624
(g1612
tp2218
sbag0
(g1615
g1561
Ntp2219
Rp2220
(dp2221
g1565
S'-((complexi*yt)/sqrt__2)'
p2222
sg1620
g1909
sg20
g1254
sg1623
Nsg1624
(g1612
tp2223
sbag0
(g1615
g1561
Ntp2224
Rp2225
(dp2226
g1565
S'-((complexi*ytau)/sqrt__2)'
p2227
sg1620
g1909
sg20
g1214
sg1623
Nsg1624
(g1612
tp2228
sbag0
(g1615
g1561
Ntp2229
Rp2230
(dp2231
g1565
S'(ee*complexi*conjg__CKM11)/(sw*sqrt__2)'
p2232
sg1620
g1909
sg20
g946
sg1623
Nsg1624
(g1612
tp2233
sbag0
(g1615
g1561
Ntp2234
Rp2235
(dp2236
g1565
S'(ee*complexi*conjg__CKM12)/(sw*sqrt__2)'
p2237
sg1620
g1909
sg20
g1006
sg1623
Nsg1624
(g1612
tp2238
sbag0
(g1615
g1561
Ntp2239
Rp2240
(dp2241
g1565
S'(ee*complexi*conjg__CKM13)/(sw*sqrt__2)'
p2242
sg1620
g1909
sg20
g1066
sg1623
Nsg1624
(g1612
tp2243
sbag0
(g1615
g1561
Ntp2244
Rp2245
(dp2246
g1565
S'(ee*complexi*conjg__CKM21)/(sw*sqrt__2)'
p2247
sg1620
g1909
sg20
g966
sg1623
Nsg1624
(g1612
tp2248
sbag0
(g1615
g1561
Ntp2249
Rp2250
(dp2251
g1565
S'(ee*complexi*conjg__CKM22)/(sw*sqrt__2)'
p2252
sg1620
g1909
sg20
g1026
sg1623
Nsg1624
(g1612
tp2253
sbag0
(g1615
g1561
Ntp2254
Rp2255
(dp2256
g1565
S'(ee*complexi*conjg__CKM23)/(sw*sqrt__2)'
p2257
sg1620
g1909
sg20
g1086
sg1623
Nsg1624
(g1612
tp2258
sbag0
(g1615
g1561
Ntp2259
Rp2260
(dp2261
g1565
S'(ee*complexi*conjg__CKM31)/(sw*sqrt__2)'
p2262
sg1620
g1909
sg20
g986
sg1623
Nsg1624
(g1612
tp2263
sbag0
(g1615
g1561
Ntp2264
Rp2265
(dp2266
g1565
S'(ee*complexi*conjg__CKM32)/(sw*sqrt__2)'
p2267
sg1620
g1909
sg20
g1046
sg1623
Nsg1624
(g1612
tp2268
sbag0
(g1615
g1561
Ntp2269
Rp2270
(dp2271
g1565
S'(ee*complexi*conjg__CKM33)/(sw*sqrt__2)'
p2272
sg1620
g1909
sg20
g1106
sg1623
Nsg1624
(g1612
tp2273
sbas(g2024
tp2274
(lp2275
g0
(g1615
g1561
Ntp2276
Rp2277
(dp2278
g1565
S'-G'
p2279
sg1620
g1909
sg20
g96
sg1623
Nsg1624
g2274
sbag0
(g1615
g1561
Ntp2280
Rp2281
(dp2282
g1565
S'complexi*G'
p2283
sg1620
g1909
sg20
g627
sg1623
Nsg1624
(g2024
tp2284
sbag0
(g1615
g1561
Ntp2285
Rp2286
(dp2287
g1565
S'complexi*G__exp__2'
p2288
sg1620
g1909
sg20
g141
sg1623
Nsg1624
(g2024
tp2289
sbasstp2290
Rp2291
.